ARM GAS  C:\Users\Giorgio\AppData\Local\Temp\ccg7jKJX.s 			page 1


   1              		.cpu cortex-m7
   2              		.eabi_attribute 28, 1
   3              		.eabi_attribute 20, 1
   4              		.eabi_attribute 21, 1
   5              		.eabi_attribute 23, 3
   6              		.eabi_attribute 24, 1
   7              		.eabi_attribute 25, 1
   8              		.eabi_attribute 26, 1
   9              		.eabi_attribute 30, 1
  10              		.eabi_attribute 34, 1
  11              		.eabi_attribute 18, 4
  12              		.file	"stm32f7xx_ll_dma.c"
  13              		.text
  14              	.Ltext0:
  15              		.cfi_sections	.debug_frame
  16              		.section	.text.LL_DMA_DeInit,"ax",%progbits
  17              		.align	1
  18              		.global	LL_DMA_DeInit
  19              		.arch armv7e-m
  20              		.syntax unified
  21              		.thumb
  22              		.thumb_func
  23              		.fpu fpv5-d16
  25              	LL_DMA_DeInit:
  26              	.LVL0:
  27              	.LFB320:
  28              		.file 1 "Drivers/STM32F7xx_HAL_Driver/Src/stm32f7xx_ll_dma.c"
   1:Drivers/STM32F7xx_HAL_Driver/Src/stm32f7xx_ll_dma.c **** /**
   2:Drivers/STM32F7xx_HAL_Driver/Src/stm32f7xx_ll_dma.c ****   ******************************************************************************
   3:Drivers/STM32F7xx_HAL_Driver/Src/stm32f7xx_ll_dma.c ****   * @file    stm32f7xx_ll_dma.c
   4:Drivers/STM32F7xx_HAL_Driver/Src/stm32f7xx_ll_dma.c ****   * @author  MCD Application Team
   5:Drivers/STM32F7xx_HAL_Driver/Src/stm32f7xx_ll_dma.c ****   * @brief   DMA LL module driver.
   6:Drivers/STM32F7xx_HAL_Driver/Src/stm32f7xx_ll_dma.c ****   ******************************************************************************
   7:Drivers/STM32F7xx_HAL_Driver/Src/stm32f7xx_ll_dma.c ****   * @attention
   8:Drivers/STM32F7xx_HAL_Driver/Src/stm32f7xx_ll_dma.c ****   *
   9:Drivers/STM32F7xx_HAL_Driver/Src/stm32f7xx_ll_dma.c ****   * <h2><center>&copy; Copyright (c) 2017 STMicroelectronics.
  10:Drivers/STM32F7xx_HAL_Driver/Src/stm32f7xx_ll_dma.c ****   * All rights reserved.</center></h2>
  11:Drivers/STM32F7xx_HAL_Driver/Src/stm32f7xx_ll_dma.c ****   *
  12:Drivers/STM32F7xx_HAL_Driver/Src/stm32f7xx_ll_dma.c ****   * This software component is licensed by ST under BSD 3-Clause license,
  13:Drivers/STM32F7xx_HAL_Driver/Src/stm32f7xx_ll_dma.c ****   * the "License"; You may not use this file except in compliance with the
  14:Drivers/STM32F7xx_HAL_Driver/Src/stm32f7xx_ll_dma.c ****   * License. You may obtain a copy of the License at:
  15:Drivers/STM32F7xx_HAL_Driver/Src/stm32f7xx_ll_dma.c ****   *                        opensource.org/licenses/BSD-3-Clause
  16:Drivers/STM32F7xx_HAL_Driver/Src/stm32f7xx_ll_dma.c ****   *
  17:Drivers/STM32F7xx_HAL_Driver/Src/stm32f7xx_ll_dma.c ****   ******************************************************************************
  18:Drivers/STM32F7xx_HAL_Driver/Src/stm32f7xx_ll_dma.c ****   */
  19:Drivers/STM32F7xx_HAL_Driver/Src/stm32f7xx_ll_dma.c **** #if defined(USE_FULL_LL_DRIVER)
  20:Drivers/STM32F7xx_HAL_Driver/Src/stm32f7xx_ll_dma.c **** 
  21:Drivers/STM32F7xx_HAL_Driver/Src/stm32f7xx_ll_dma.c **** /* Includes ------------------------------------------------------------------*/
  22:Drivers/STM32F7xx_HAL_Driver/Src/stm32f7xx_ll_dma.c **** #include "stm32f7xx_ll_dma.h"
  23:Drivers/STM32F7xx_HAL_Driver/Src/stm32f7xx_ll_dma.c **** #include "stm32f7xx_ll_bus.h"
  24:Drivers/STM32F7xx_HAL_Driver/Src/stm32f7xx_ll_dma.c **** #ifdef  USE_FULL_ASSERT
  25:Drivers/STM32F7xx_HAL_Driver/Src/stm32f7xx_ll_dma.c **** #include "stm32_assert.h"
  26:Drivers/STM32F7xx_HAL_Driver/Src/stm32f7xx_ll_dma.c **** #else
  27:Drivers/STM32F7xx_HAL_Driver/Src/stm32f7xx_ll_dma.c **** #define assert_param(expr) ((void)0U)
  28:Drivers/STM32F7xx_HAL_Driver/Src/stm32f7xx_ll_dma.c **** #endif
  29:Drivers/STM32F7xx_HAL_Driver/Src/stm32f7xx_ll_dma.c **** 
  30:Drivers/STM32F7xx_HAL_Driver/Src/stm32f7xx_ll_dma.c **** /** @addtogroup STM32F7xx_LL_Driver
ARM GAS  C:\Users\Giorgio\AppData\Local\Temp\ccg7jKJX.s 			page 2


  31:Drivers/STM32F7xx_HAL_Driver/Src/stm32f7xx_ll_dma.c ****   * @{
  32:Drivers/STM32F7xx_HAL_Driver/Src/stm32f7xx_ll_dma.c ****   */
  33:Drivers/STM32F7xx_HAL_Driver/Src/stm32f7xx_ll_dma.c **** 
  34:Drivers/STM32F7xx_HAL_Driver/Src/stm32f7xx_ll_dma.c **** #if defined (DMA1) || defined (DMA2)
  35:Drivers/STM32F7xx_HAL_Driver/Src/stm32f7xx_ll_dma.c **** 
  36:Drivers/STM32F7xx_HAL_Driver/Src/stm32f7xx_ll_dma.c **** /** @defgroup DMA_LL DMA
  37:Drivers/STM32F7xx_HAL_Driver/Src/stm32f7xx_ll_dma.c ****   * @{
  38:Drivers/STM32F7xx_HAL_Driver/Src/stm32f7xx_ll_dma.c ****   */
  39:Drivers/STM32F7xx_HAL_Driver/Src/stm32f7xx_ll_dma.c **** 
  40:Drivers/STM32F7xx_HAL_Driver/Src/stm32f7xx_ll_dma.c **** /* Private types -------------------------------------------------------------*/
  41:Drivers/STM32F7xx_HAL_Driver/Src/stm32f7xx_ll_dma.c **** /* Private variables ---------------------------------------------------------*/
  42:Drivers/STM32F7xx_HAL_Driver/Src/stm32f7xx_ll_dma.c **** /* Private constants ---------------------------------------------------------*/
  43:Drivers/STM32F7xx_HAL_Driver/Src/stm32f7xx_ll_dma.c **** /* Private macros ------------------------------------------------------------*/
  44:Drivers/STM32F7xx_HAL_Driver/Src/stm32f7xx_ll_dma.c **** /** @addtogroup DMA_LL_Private_Macros
  45:Drivers/STM32F7xx_HAL_Driver/Src/stm32f7xx_ll_dma.c ****   * @{
  46:Drivers/STM32F7xx_HAL_Driver/Src/stm32f7xx_ll_dma.c ****   */
  47:Drivers/STM32F7xx_HAL_Driver/Src/stm32f7xx_ll_dma.c **** #define IS_LL_DMA_DIRECTION(__VALUE__)          (((__VALUE__) == LL_DMA_DIRECTION_PERIPH_TO_MEMORY)
  48:Drivers/STM32F7xx_HAL_Driver/Src/stm32f7xx_ll_dma.c ****                                                  ((__VALUE__) == LL_DMA_DIRECTION_MEMORY_TO_PERIPH)
  49:Drivers/STM32F7xx_HAL_Driver/Src/stm32f7xx_ll_dma.c ****                                                  ((__VALUE__) == LL_DMA_DIRECTION_MEMORY_TO_MEMORY)
  50:Drivers/STM32F7xx_HAL_Driver/Src/stm32f7xx_ll_dma.c **** 
  51:Drivers/STM32F7xx_HAL_Driver/Src/stm32f7xx_ll_dma.c **** #define IS_LL_DMA_MODE(__VALUE__)               (((__VALUE__) == LL_DMA_MODE_NORMAL)    || \
  52:Drivers/STM32F7xx_HAL_Driver/Src/stm32f7xx_ll_dma.c ****                                                  ((__VALUE__) == LL_DMA_MODE_CIRCULAR)  || \
  53:Drivers/STM32F7xx_HAL_Driver/Src/stm32f7xx_ll_dma.c ****                                                  ((__VALUE__) == LL_DMA_MODE_PFCTRL))
  54:Drivers/STM32F7xx_HAL_Driver/Src/stm32f7xx_ll_dma.c **** 
  55:Drivers/STM32F7xx_HAL_Driver/Src/stm32f7xx_ll_dma.c **** #define IS_LL_DMA_PERIPHINCMODE(__VALUE__)      (((__VALUE__) == LL_DMA_PERIPH_INCREMENT) || \
  56:Drivers/STM32F7xx_HAL_Driver/Src/stm32f7xx_ll_dma.c ****                                                  ((__VALUE__) == LL_DMA_PERIPH_NOINCREMENT))
  57:Drivers/STM32F7xx_HAL_Driver/Src/stm32f7xx_ll_dma.c **** 
  58:Drivers/STM32F7xx_HAL_Driver/Src/stm32f7xx_ll_dma.c **** #define IS_LL_DMA_MEMORYINCMODE(__VALUE__)      (((__VALUE__) == LL_DMA_MEMORY_INCREMENT) || \
  59:Drivers/STM32F7xx_HAL_Driver/Src/stm32f7xx_ll_dma.c ****                                                  ((__VALUE__) == LL_DMA_MEMORY_NOINCREMENT))
  60:Drivers/STM32F7xx_HAL_Driver/Src/stm32f7xx_ll_dma.c **** 
  61:Drivers/STM32F7xx_HAL_Driver/Src/stm32f7xx_ll_dma.c **** #define IS_LL_DMA_PERIPHDATASIZE(__VALUE__)     (((__VALUE__) == LL_DMA_PDATAALIGN_BYTE)      || \
  62:Drivers/STM32F7xx_HAL_Driver/Src/stm32f7xx_ll_dma.c ****                                                  ((__VALUE__) == LL_DMA_PDATAALIGN_HALFWORD)  || \
  63:Drivers/STM32F7xx_HAL_Driver/Src/stm32f7xx_ll_dma.c ****                                                  ((__VALUE__) == LL_DMA_PDATAALIGN_WORD))
  64:Drivers/STM32F7xx_HAL_Driver/Src/stm32f7xx_ll_dma.c **** 
  65:Drivers/STM32F7xx_HAL_Driver/Src/stm32f7xx_ll_dma.c **** #define IS_LL_DMA_MEMORYDATASIZE(__VALUE__)     (((__VALUE__) == LL_DMA_MDATAALIGN_BYTE)      || \
  66:Drivers/STM32F7xx_HAL_Driver/Src/stm32f7xx_ll_dma.c ****                                                  ((__VALUE__) == LL_DMA_MDATAALIGN_HALFWORD)  || \
  67:Drivers/STM32F7xx_HAL_Driver/Src/stm32f7xx_ll_dma.c ****                                                  ((__VALUE__) == LL_DMA_MDATAALIGN_WORD))
  68:Drivers/STM32F7xx_HAL_Driver/Src/stm32f7xx_ll_dma.c **** 
  69:Drivers/STM32F7xx_HAL_Driver/Src/stm32f7xx_ll_dma.c **** #define IS_LL_DMA_NBDATA(__VALUE__)             ((__VALUE__)  <= 0x0000FFFFU)
  70:Drivers/STM32F7xx_HAL_Driver/Src/stm32f7xx_ll_dma.c **** 
  71:Drivers/STM32F7xx_HAL_Driver/Src/stm32f7xx_ll_dma.c **** #if  defined(DMA_CHANNEL_SELECTION_8_15)
  72:Drivers/STM32F7xx_HAL_Driver/Src/stm32f7xx_ll_dma.c **** #define IS_LL_DMA_CHANNEL(__VALUE__)            (((__VALUE__) == LL_DMA_CHANNEL_0)  || \
  73:Drivers/STM32F7xx_HAL_Driver/Src/stm32f7xx_ll_dma.c ****                                                  ((__VALUE__) == LL_DMA_CHANNEL_1)  || \
  74:Drivers/STM32F7xx_HAL_Driver/Src/stm32f7xx_ll_dma.c ****                                                  ((__VALUE__) == LL_DMA_CHANNEL_2)  || \
  75:Drivers/STM32F7xx_HAL_Driver/Src/stm32f7xx_ll_dma.c ****                                                  ((__VALUE__) == LL_DMA_CHANNEL_3)  || \
  76:Drivers/STM32F7xx_HAL_Driver/Src/stm32f7xx_ll_dma.c ****                                                  ((__VALUE__) == LL_DMA_CHANNEL_4)  || \
  77:Drivers/STM32F7xx_HAL_Driver/Src/stm32f7xx_ll_dma.c ****                                                  ((__VALUE__) == LL_DMA_CHANNEL_5)  || \
  78:Drivers/STM32F7xx_HAL_Driver/Src/stm32f7xx_ll_dma.c ****                                                  ((__VALUE__) == LL_DMA_CHANNEL_6)  || \
  79:Drivers/STM32F7xx_HAL_Driver/Src/stm32f7xx_ll_dma.c ****                                                  ((__VALUE__) == LL_DMA_CHANNEL_7)  || \
  80:Drivers/STM32F7xx_HAL_Driver/Src/stm32f7xx_ll_dma.c ****                                                  ((__VALUE__) == LL_DMA_CHANNEL_8)  || \
  81:Drivers/STM32F7xx_HAL_Driver/Src/stm32f7xx_ll_dma.c ****                                                  ((__VALUE__) == LL_DMA_CHANNEL_9)  || \
  82:Drivers/STM32F7xx_HAL_Driver/Src/stm32f7xx_ll_dma.c ****                                                  ((__VALUE__) == LL_DMA_CHANNEL_10)  || \
  83:Drivers/STM32F7xx_HAL_Driver/Src/stm32f7xx_ll_dma.c ****                                                  ((__VALUE__) == LL_DMA_CHANNEL_11)  || \
  84:Drivers/STM32F7xx_HAL_Driver/Src/stm32f7xx_ll_dma.c ****                                                  ((__VALUE__) == LL_DMA_CHANNEL_12)  || \
  85:Drivers/STM32F7xx_HAL_Driver/Src/stm32f7xx_ll_dma.c ****                                                  ((__VALUE__) == LL_DMA_CHANNEL_13)  || \
  86:Drivers/STM32F7xx_HAL_Driver/Src/stm32f7xx_ll_dma.c ****                                                  ((__VALUE__) == LL_DMA_CHANNEL_14)  || \
  87:Drivers/STM32F7xx_HAL_Driver/Src/stm32f7xx_ll_dma.c ****                                                  ((__VALUE__) == LL_DMA_CHANNEL_15))
ARM GAS  C:\Users\Giorgio\AppData\Local\Temp\ccg7jKJX.s 			page 3


  88:Drivers/STM32F7xx_HAL_Driver/Src/stm32f7xx_ll_dma.c **** 
  89:Drivers/STM32F7xx_HAL_Driver/Src/stm32f7xx_ll_dma.c **** #else
  90:Drivers/STM32F7xx_HAL_Driver/Src/stm32f7xx_ll_dma.c **** #define IS_LL_DMA_CHANNEL(__VALUE__)            (((__VALUE__) == LL_DMA_CHANNEL_0)  || \
  91:Drivers/STM32F7xx_HAL_Driver/Src/stm32f7xx_ll_dma.c ****                                                  ((__VALUE__) == LL_DMA_CHANNEL_1)  || \
  92:Drivers/STM32F7xx_HAL_Driver/Src/stm32f7xx_ll_dma.c ****                                                  ((__VALUE__) == LL_DMA_CHANNEL_2)  || \
  93:Drivers/STM32F7xx_HAL_Driver/Src/stm32f7xx_ll_dma.c ****                                                  ((__VALUE__) == LL_DMA_CHANNEL_3)  || \
  94:Drivers/STM32F7xx_HAL_Driver/Src/stm32f7xx_ll_dma.c ****                                                  ((__VALUE__) == LL_DMA_CHANNEL_4)  || \
  95:Drivers/STM32F7xx_HAL_Driver/Src/stm32f7xx_ll_dma.c ****                                                  ((__VALUE__) == LL_DMA_CHANNEL_5)  || \
  96:Drivers/STM32F7xx_HAL_Driver/Src/stm32f7xx_ll_dma.c ****                                                  ((__VALUE__) == LL_DMA_CHANNEL_6)  || \
  97:Drivers/STM32F7xx_HAL_Driver/Src/stm32f7xx_ll_dma.c ****                                                  ((__VALUE__) == LL_DMA_CHANNEL_7))
  98:Drivers/STM32F7xx_HAL_Driver/Src/stm32f7xx_ll_dma.c **** 
  99:Drivers/STM32F7xx_HAL_Driver/Src/stm32f7xx_ll_dma.c **** #endif /* DMA_CHANNEL_SELECTION_8_15 */
 100:Drivers/STM32F7xx_HAL_Driver/Src/stm32f7xx_ll_dma.c **** 
 101:Drivers/STM32F7xx_HAL_Driver/Src/stm32f7xx_ll_dma.c **** #define IS_LL_DMA_PRIORITY(__VALUE__)           (((__VALUE__) == LL_DMA_PRIORITY_LOW)    || \
 102:Drivers/STM32F7xx_HAL_Driver/Src/stm32f7xx_ll_dma.c ****                                                  ((__VALUE__) == LL_DMA_PRIORITY_MEDIUM) || \
 103:Drivers/STM32F7xx_HAL_Driver/Src/stm32f7xx_ll_dma.c ****                                                  ((__VALUE__) == LL_DMA_PRIORITY_HIGH)   || \
 104:Drivers/STM32F7xx_HAL_Driver/Src/stm32f7xx_ll_dma.c ****                                                  ((__VALUE__) == LL_DMA_PRIORITY_VERYHIGH))
 105:Drivers/STM32F7xx_HAL_Driver/Src/stm32f7xx_ll_dma.c **** 
 106:Drivers/STM32F7xx_HAL_Driver/Src/stm32f7xx_ll_dma.c **** #define IS_LL_DMA_ALL_STREAM_INSTANCE(INSTANCE, STREAM)   ((((INSTANCE) == DMA1) && \
 107:Drivers/STM32F7xx_HAL_Driver/Src/stm32f7xx_ll_dma.c ****                                                            (((STREAM) == LL_DMA_STREAM_0) || \
 108:Drivers/STM32F7xx_HAL_Driver/Src/stm32f7xx_ll_dma.c ****                                                             ((STREAM) == LL_DMA_STREAM_1) || \
 109:Drivers/STM32F7xx_HAL_Driver/Src/stm32f7xx_ll_dma.c ****                                                             ((STREAM) == LL_DMA_STREAM_2) || \
 110:Drivers/STM32F7xx_HAL_Driver/Src/stm32f7xx_ll_dma.c ****                                                             ((STREAM) == LL_DMA_STREAM_3) || \
 111:Drivers/STM32F7xx_HAL_Driver/Src/stm32f7xx_ll_dma.c ****                                                             ((STREAM) == LL_DMA_STREAM_4) || \
 112:Drivers/STM32F7xx_HAL_Driver/Src/stm32f7xx_ll_dma.c ****                                                             ((STREAM) == LL_DMA_STREAM_5) || \
 113:Drivers/STM32F7xx_HAL_Driver/Src/stm32f7xx_ll_dma.c ****                                                             ((STREAM) == LL_DMA_STREAM_6) || \
 114:Drivers/STM32F7xx_HAL_Driver/Src/stm32f7xx_ll_dma.c ****                                                             ((STREAM) == LL_DMA_STREAM_7) || \
 115:Drivers/STM32F7xx_HAL_Driver/Src/stm32f7xx_ll_dma.c ****                                                             ((STREAM) == LL_DMA_STREAM_ALL))) ||\
 116:Drivers/STM32F7xx_HAL_Driver/Src/stm32f7xx_ll_dma.c ****                                                             (((INSTANCE) == DMA2) && \
 117:Drivers/STM32F7xx_HAL_Driver/Src/stm32f7xx_ll_dma.c ****                                                           (((STREAM) == LL_DMA_STREAM_0) || \
 118:Drivers/STM32F7xx_HAL_Driver/Src/stm32f7xx_ll_dma.c ****                                                            ((STREAM) == LL_DMA_STREAM_1) || \
 119:Drivers/STM32F7xx_HAL_Driver/Src/stm32f7xx_ll_dma.c ****                                                            ((STREAM) == LL_DMA_STREAM_2) || \
 120:Drivers/STM32F7xx_HAL_Driver/Src/stm32f7xx_ll_dma.c ****                                                            ((STREAM) == LL_DMA_STREAM_3) || \
 121:Drivers/STM32F7xx_HAL_Driver/Src/stm32f7xx_ll_dma.c ****                                                            ((STREAM) == LL_DMA_STREAM_4) || \
 122:Drivers/STM32F7xx_HAL_Driver/Src/stm32f7xx_ll_dma.c ****                                                            ((STREAM) == LL_DMA_STREAM_5) || \
 123:Drivers/STM32F7xx_HAL_Driver/Src/stm32f7xx_ll_dma.c ****                                                            ((STREAM) == LL_DMA_STREAM_6) || \
 124:Drivers/STM32F7xx_HAL_Driver/Src/stm32f7xx_ll_dma.c ****                                                            ((STREAM) == LL_DMA_STREAM_7) || \
 125:Drivers/STM32F7xx_HAL_Driver/Src/stm32f7xx_ll_dma.c ****                                                            ((STREAM) == LL_DMA_STREAM_ALL))))
 126:Drivers/STM32F7xx_HAL_Driver/Src/stm32f7xx_ll_dma.c **** 
 127:Drivers/STM32F7xx_HAL_Driver/Src/stm32f7xx_ll_dma.c **** #define IS_LL_DMA_FIFO_MODE_STATE(STATE) (((STATE) == LL_DMA_FIFOMODE_DISABLE ) || \
 128:Drivers/STM32F7xx_HAL_Driver/Src/stm32f7xx_ll_dma.c ****                                           ((STATE) == LL_DMA_FIFOMODE_ENABLE))
 129:Drivers/STM32F7xx_HAL_Driver/Src/stm32f7xx_ll_dma.c **** 
 130:Drivers/STM32F7xx_HAL_Driver/Src/stm32f7xx_ll_dma.c **** #define IS_LL_DMA_FIFO_THRESHOLD(THRESHOLD) (((THRESHOLD) == LL_DMA_FIFOTHRESHOLD_1_4) || \
 131:Drivers/STM32F7xx_HAL_Driver/Src/stm32f7xx_ll_dma.c ****                                              ((THRESHOLD) == LL_DMA_FIFOTHRESHOLD_1_2)  || \
 132:Drivers/STM32F7xx_HAL_Driver/Src/stm32f7xx_ll_dma.c ****                                              ((THRESHOLD) == LL_DMA_FIFOTHRESHOLD_3_4)  || \
 133:Drivers/STM32F7xx_HAL_Driver/Src/stm32f7xx_ll_dma.c ****                                              ((THRESHOLD) == LL_DMA_FIFOTHRESHOLD_FULL))
 134:Drivers/STM32F7xx_HAL_Driver/Src/stm32f7xx_ll_dma.c **** 
 135:Drivers/STM32F7xx_HAL_Driver/Src/stm32f7xx_ll_dma.c **** #define IS_LL_DMA_MEMORY_BURST(BURST) (((BURST) == LL_DMA_MBURST_SINGLE) || \
 136:Drivers/STM32F7xx_HAL_Driver/Src/stm32f7xx_ll_dma.c ****                                        ((BURST) == LL_DMA_MBURST_INC4)   || \
 137:Drivers/STM32F7xx_HAL_Driver/Src/stm32f7xx_ll_dma.c ****                                        ((BURST) == LL_DMA_MBURST_INC8)   || \
 138:Drivers/STM32F7xx_HAL_Driver/Src/stm32f7xx_ll_dma.c ****                                        ((BURST) == LL_DMA_MBURST_INC16))
 139:Drivers/STM32F7xx_HAL_Driver/Src/stm32f7xx_ll_dma.c **** 
 140:Drivers/STM32F7xx_HAL_Driver/Src/stm32f7xx_ll_dma.c **** #define IS_LL_DMA_PERIPHERAL_BURST(BURST) (((BURST) == LL_DMA_PBURST_SINGLE) || \
 141:Drivers/STM32F7xx_HAL_Driver/Src/stm32f7xx_ll_dma.c ****                                            ((BURST) == LL_DMA_PBURST_INC4)   || \
 142:Drivers/STM32F7xx_HAL_Driver/Src/stm32f7xx_ll_dma.c ****                                            ((BURST) == LL_DMA_PBURST_INC8)   || \
 143:Drivers/STM32F7xx_HAL_Driver/Src/stm32f7xx_ll_dma.c ****                                            ((BURST) == LL_DMA_PBURST_INC16))
 144:Drivers/STM32F7xx_HAL_Driver/Src/stm32f7xx_ll_dma.c **** 
ARM GAS  C:\Users\Giorgio\AppData\Local\Temp\ccg7jKJX.s 			page 4


 145:Drivers/STM32F7xx_HAL_Driver/Src/stm32f7xx_ll_dma.c **** /**
 146:Drivers/STM32F7xx_HAL_Driver/Src/stm32f7xx_ll_dma.c ****   * @}
 147:Drivers/STM32F7xx_HAL_Driver/Src/stm32f7xx_ll_dma.c ****   */
 148:Drivers/STM32F7xx_HAL_Driver/Src/stm32f7xx_ll_dma.c **** 
 149:Drivers/STM32F7xx_HAL_Driver/Src/stm32f7xx_ll_dma.c **** /* Private function prototypes -----------------------------------------------*/
 150:Drivers/STM32F7xx_HAL_Driver/Src/stm32f7xx_ll_dma.c **** 
 151:Drivers/STM32F7xx_HAL_Driver/Src/stm32f7xx_ll_dma.c **** /* Exported functions --------------------------------------------------------*/
 152:Drivers/STM32F7xx_HAL_Driver/Src/stm32f7xx_ll_dma.c **** /** @addtogroup DMA_LL_Exported_Functions
 153:Drivers/STM32F7xx_HAL_Driver/Src/stm32f7xx_ll_dma.c ****   * @{
 154:Drivers/STM32F7xx_HAL_Driver/Src/stm32f7xx_ll_dma.c ****   */
 155:Drivers/STM32F7xx_HAL_Driver/Src/stm32f7xx_ll_dma.c **** 
 156:Drivers/STM32F7xx_HAL_Driver/Src/stm32f7xx_ll_dma.c **** /** @addtogroup DMA_LL_EF_Init
 157:Drivers/STM32F7xx_HAL_Driver/Src/stm32f7xx_ll_dma.c ****   * @{
 158:Drivers/STM32F7xx_HAL_Driver/Src/stm32f7xx_ll_dma.c ****   */
 159:Drivers/STM32F7xx_HAL_Driver/Src/stm32f7xx_ll_dma.c **** 
 160:Drivers/STM32F7xx_HAL_Driver/Src/stm32f7xx_ll_dma.c **** /**
 161:Drivers/STM32F7xx_HAL_Driver/Src/stm32f7xx_ll_dma.c ****   * @brief  De-initialize the DMA registers to their default reset values.
 162:Drivers/STM32F7xx_HAL_Driver/Src/stm32f7xx_ll_dma.c ****   * @param  DMAx DMAx Instance
 163:Drivers/STM32F7xx_HAL_Driver/Src/stm32f7xx_ll_dma.c ****   * @param  Stream This parameter can be one of the following values:
 164:Drivers/STM32F7xx_HAL_Driver/Src/stm32f7xx_ll_dma.c ****   *         @arg @ref LL_DMA_STREAM_0
 165:Drivers/STM32F7xx_HAL_Driver/Src/stm32f7xx_ll_dma.c ****   *         @arg @ref LL_DMA_STREAM_1
 166:Drivers/STM32F7xx_HAL_Driver/Src/stm32f7xx_ll_dma.c ****   *         @arg @ref LL_DMA_STREAM_2
 167:Drivers/STM32F7xx_HAL_Driver/Src/stm32f7xx_ll_dma.c ****   *         @arg @ref LL_DMA_STREAM_3
 168:Drivers/STM32F7xx_HAL_Driver/Src/stm32f7xx_ll_dma.c ****   *         @arg @ref LL_DMA_STREAM_4
 169:Drivers/STM32F7xx_HAL_Driver/Src/stm32f7xx_ll_dma.c ****   *         @arg @ref LL_DMA_STREAM_5
 170:Drivers/STM32F7xx_HAL_Driver/Src/stm32f7xx_ll_dma.c ****   *         @arg @ref LL_DMA_STREAM_6
 171:Drivers/STM32F7xx_HAL_Driver/Src/stm32f7xx_ll_dma.c ****   *         @arg @ref LL_DMA_STREAM_7
 172:Drivers/STM32F7xx_HAL_Driver/Src/stm32f7xx_ll_dma.c ****   *         @arg @ref LL_DMA_STREAM_ALL
 173:Drivers/STM32F7xx_HAL_Driver/Src/stm32f7xx_ll_dma.c ****   * @retval An ErrorStatus enumeration value:
 174:Drivers/STM32F7xx_HAL_Driver/Src/stm32f7xx_ll_dma.c ****   *          - SUCCESS: DMA registers are de-initialized
 175:Drivers/STM32F7xx_HAL_Driver/Src/stm32f7xx_ll_dma.c ****   *          - ERROR: DMA registers are not de-initialized
 176:Drivers/STM32F7xx_HAL_Driver/Src/stm32f7xx_ll_dma.c ****   */
 177:Drivers/STM32F7xx_HAL_Driver/Src/stm32f7xx_ll_dma.c **** uint32_t LL_DMA_DeInit(DMA_TypeDef *DMAx, uint32_t Stream)
 178:Drivers/STM32F7xx_HAL_Driver/Src/stm32f7xx_ll_dma.c **** {
  29              		.loc 1 178 1 view -0
  30              		.cfi_startproc
  31              		@ args = 0, pretend = 0, frame = 0
  32              		@ frame_needed = 0, uses_anonymous_args = 0
 179:Drivers/STM32F7xx_HAL_Driver/Src/stm32f7xx_ll_dma.c ****   DMA_Stream_TypeDef *tmp = (DMA_Stream_TypeDef *)DMA1_Stream0;
  33              		.loc 1 179 3 view .LVU1
 180:Drivers/STM32F7xx_HAL_Driver/Src/stm32f7xx_ll_dma.c ****   ErrorStatus status = SUCCESS;
  34              		.loc 1 180 3 view .LVU2
 181:Drivers/STM32F7xx_HAL_Driver/Src/stm32f7xx_ll_dma.c **** 
 182:Drivers/STM32F7xx_HAL_Driver/Src/stm32f7xx_ll_dma.c ****   /* Check the DMA Instance DMAx and Stream parameters*/
 183:Drivers/STM32F7xx_HAL_Driver/Src/stm32f7xx_ll_dma.c ****   assert_param(IS_LL_DMA_ALL_STREAM_INSTANCE(DMAx, Stream));
  35              		.loc 1 183 3 view .LVU3
 184:Drivers/STM32F7xx_HAL_Driver/Src/stm32f7xx_ll_dma.c **** 
 185:Drivers/STM32F7xx_HAL_Driver/Src/stm32f7xx_ll_dma.c ****   if (Stream == LL_DMA_STREAM_ALL)
  36              		.loc 1 185 3 view .LVU4
  37              		.loc 1 185 6 is_stmt 0 view .LVU5
  38 0000 11F5803F 		cmn	r1, #65536
  39 0004 58D0     		beq	.L33
 178:Drivers/STM32F7xx_HAL_Driver/Src/stm32f7xx_ll_dma.c ****   DMA_Stream_TypeDef *tmp = (DMA_Stream_TypeDef *)DMA1_Stream0;
  40              		.loc 1 178 1 view .LVU6
  41 0006 10B5     		push	{r4, lr}
  42              	.LCFI0:
  43              		.cfi_def_cfa_offset 8
ARM GAS  C:\Users\Giorgio\AppData\Local\Temp\ccg7jKJX.s 			page 5


  44              		.cfi_offset 4, -8
  45              		.cfi_offset 14, -4
 186:Drivers/STM32F7xx_HAL_Driver/Src/stm32f7xx_ll_dma.c ****   {
 187:Drivers/STM32F7xx_HAL_Driver/Src/stm32f7xx_ll_dma.c ****     if (DMAx == DMA1)
 188:Drivers/STM32F7xx_HAL_Driver/Src/stm32f7xx_ll_dma.c ****     {
 189:Drivers/STM32F7xx_HAL_Driver/Src/stm32f7xx_ll_dma.c ****       /* Force reset of DMA clock */
 190:Drivers/STM32F7xx_HAL_Driver/Src/stm32f7xx_ll_dma.c ****       LL_AHB1_GRP1_ForceReset(LL_AHB1_GRP1_PERIPH_DMA1);
 191:Drivers/STM32F7xx_HAL_Driver/Src/stm32f7xx_ll_dma.c **** 
 192:Drivers/STM32F7xx_HAL_Driver/Src/stm32f7xx_ll_dma.c ****       /* Release reset of DMA clock */
 193:Drivers/STM32F7xx_HAL_Driver/Src/stm32f7xx_ll_dma.c ****       LL_AHB1_GRP1_ReleaseReset(LL_AHB1_GRP1_PERIPH_DMA1);
 194:Drivers/STM32F7xx_HAL_Driver/Src/stm32f7xx_ll_dma.c ****     }
 195:Drivers/STM32F7xx_HAL_Driver/Src/stm32f7xx_ll_dma.c ****     else if (DMAx == DMA2)
 196:Drivers/STM32F7xx_HAL_Driver/Src/stm32f7xx_ll_dma.c ****     {
 197:Drivers/STM32F7xx_HAL_Driver/Src/stm32f7xx_ll_dma.c ****       /* Force reset of DMA clock */
 198:Drivers/STM32F7xx_HAL_Driver/Src/stm32f7xx_ll_dma.c ****       LL_AHB1_GRP1_ForceReset(LL_AHB1_GRP1_PERIPH_DMA2);
 199:Drivers/STM32F7xx_HAL_Driver/Src/stm32f7xx_ll_dma.c **** 
 200:Drivers/STM32F7xx_HAL_Driver/Src/stm32f7xx_ll_dma.c ****       /* Release reset of DMA clock */
 201:Drivers/STM32F7xx_HAL_Driver/Src/stm32f7xx_ll_dma.c ****       LL_AHB1_GRP1_ReleaseReset(LL_AHB1_GRP1_PERIPH_DMA2);
 202:Drivers/STM32F7xx_HAL_Driver/Src/stm32f7xx_ll_dma.c ****     }
 203:Drivers/STM32F7xx_HAL_Driver/Src/stm32f7xx_ll_dma.c ****     else
 204:Drivers/STM32F7xx_HAL_Driver/Src/stm32f7xx_ll_dma.c ****     {
 205:Drivers/STM32F7xx_HAL_Driver/Src/stm32f7xx_ll_dma.c ****       status = ERROR;
 206:Drivers/STM32F7xx_HAL_Driver/Src/stm32f7xx_ll_dma.c ****     }
 207:Drivers/STM32F7xx_HAL_Driver/Src/stm32f7xx_ll_dma.c ****   }
 208:Drivers/STM32F7xx_HAL_Driver/Src/stm32f7xx_ll_dma.c ****   else
 209:Drivers/STM32F7xx_HAL_Driver/Src/stm32f7xx_ll_dma.c ****   {
 210:Drivers/STM32F7xx_HAL_Driver/Src/stm32f7xx_ll_dma.c ****     /* Disable the selected Stream */
 211:Drivers/STM32F7xx_HAL_Driver/Src/stm32f7xx_ll_dma.c ****     LL_DMA_DisableStream(DMAx,Stream);
  46              		.loc 1 211 5 is_stmt 1 view .LVU7
  47              	.LVL1:
  48              	.LBB30:
  49              	.LBI30:
  50              		.file 2 "Drivers/STM32F7xx_HAL_Driver/Inc/stm32f7xx_ll_dma.h"
   1:Drivers/STM32F7xx_HAL_Driver/Inc/stm32f7xx_ll_dma.h **** /**
   2:Drivers/STM32F7xx_HAL_Driver/Inc/stm32f7xx_ll_dma.h ****   ******************************************************************************
   3:Drivers/STM32F7xx_HAL_Driver/Inc/stm32f7xx_ll_dma.h ****   * @file    stm32f7xx_ll_dma.h
   4:Drivers/STM32F7xx_HAL_Driver/Inc/stm32f7xx_ll_dma.h ****   * @author  MCD Application Team
   5:Drivers/STM32F7xx_HAL_Driver/Inc/stm32f7xx_ll_dma.h ****   * @brief   Header file of DMA LL module.
   6:Drivers/STM32F7xx_HAL_Driver/Inc/stm32f7xx_ll_dma.h ****   ******************************************************************************
   7:Drivers/STM32F7xx_HAL_Driver/Inc/stm32f7xx_ll_dma.h ****   * @attention
   8:Drivers/STM32F7xx_HAL_Driver/Inc/stm32f7xx_ll_dma.h ****   *
   9:Drivers/STM32F7xx_HAL_Driver/Inc/stm32f7xx_ll_dma.h ****   * <h2><center>&copy; Copyright (c) 2017 STMicroelectronics.
  10:Drivers/STM32F7xx_HAL_Driver/Inc/stm32f7xx_ll_dma.h ****   * All rights reserved.</center></h2>
  11:Drivers/STM32F7xx_HAL_Driver/Inc/stm32f7xx_ll_dma.h ****   *
  12:Drivers/STM32F7xx_HAL_Driver/Inc/stm32f7xx_ll_dma.h ****   * This software component is licensed by ST under BSD 3-Clause license,
  13:Drivers/STM32F7xx_HAL_Driver/Inc/stm32f7xx_ll_dma.h ****   * the "License"; You may not use this file except in compliance with the
  14:Drivers/STM32F7xx_HAL_Driver/Inc/stm32f7xx_ll_dma.h ****   * License. You may obtain a copy of the License at:
  15:Drivers/STM32F7xx_HAL_Driver/Inc/stm32f7xx_ll_dma.h ****   *                        opensource.org/licenses/BSD-3-Clause
  16:Drivers/STM32F7xx_HAL_Driver/Inc/stm32f7xx_ll_dma.h ****   *
  17:Drivers/STM32F7xx_HAL_Driver/Inc/stm32f7xx_ll_dma.h ****   ******************************************************************************
  18:Drivers/STM32F7xx_HAL_Driver/Inc/stm32f7xx_ll_dma.h ****   */
  19:Drivers/STM32F7xx_HAL_Driver/Inc/stm32f7xx_ll_dma.h **** 
  20:Drivers/STM32F7xx_HAL_Driver/Inc/stm32f7xx_ll_dma.h **** /* Define to prevent recursive inclusion -------------------------------------*/
  21:Drivers/STM32F7xx_HAL_Driver/Inc/stm32f7xx_ll_dma.h **** #ifndef __STM32F7xx_LL_DMA_H
  22:Drivers/STM32F7xx_HAL_Driver/Inc/stm32f7xx_ll_dma.h **** #define __STM32F7xx_LL_DMA_H
  23:Drivers/STM32F7xx_HAL_Driver/Inc/stm32f7xx_ll_dma.h **** 
  24:Drivers/STM32F7xx_HAL_Driver/Inc/stm32f7xx_ll_dma.h **** #ifdef __cplusplus
ARM GAS  C:\Users\Giorgio\AppData\Local\Temp\ccg7jKJX.s 			page 6


  25:Drivers/STM32F7xx_HAL_Driver/Inc/stm32f7xx_ll_dma.h **** extern "C" {
  26:Drivers/STM32F7xx_HAL_Driver/Inc/stm32f7xx_ll_dma.h **** #endif
  27:Drivers/STM32F7xx_HAL_Driver/Inc/stm32f7xx_ll_dma.h **** 
  28:Drivers/STM32F7xx_HAL_Driver/Inc/stm32f7xx_ll_dma.h **** /* Includes ------------------------------------------------------------------*/
  29:Drivers/STM32F7xx_HAL_Driver/Inc/stm32f7xx_ll_dma.h **** #include "stm32f7xx.h"
  30:Drivers/STM32F7xx_HAL_Driver/Inc/stm32f7xx_ll_dma.h **** 
  31:Drivers/STM32F7xx_HAL_Driver/Inc/stm32f7xx_ll_dma.h **** /** @addtogroup STM32F7xx_LL_Driver
  32:Drivers/STM32F7xx_HAL_Driver/Inc/stm32f7xx_ll_dma.h ****   * @{
  33:Drivers/STM32F7xx_HAL_Driver/Inc/stm32f7xx_ll_dma.h ****   */
  34:Drivers/STM32F7xx_HAL_Driver/Inc/stm32f7xx_ll_dma.h **** 
  35:Drivers/STM32F7xx_HAL_Driver/Inc/stm32f7xx_ll_dma.h **** #if defined (DMA1) || defined (DMA2)
  36:Drivers/STM32F7xx_HAL_Driver/Inc/stm32f7xx_ll_dma.h **** 
  37:Drivers/STM32F7xx_HAL_Driver/Inc/stm32f7xx_ll_dma.h **** /** @defgroup DMA_LL DMA
  38:Drivers/STM32F7xx_HAL_Driver/Inc/stm32f7xx_ll_dma.h ****   * @{
  39:Drivers/STM32F7xx_HAL_Driver/Inc/stm32f7xx_ll_dma.h ****   */
  40:Drivers/STM32F7xx_HAL_Driver/Inc/stm32f7xx_ll_dma.h **** 
  41:Drivers/STM32F7xx_HAL_Driver/Inc/stm32f7xx_ll_dma.h **** /* Private types -------------------------------------------------------------*/
  42:Drivers/STM32F7xx_HAL_Driver/Inc/stm32f7xx_ll_dma.h **** /* Private variables ---------------------------------------------------------*/
  43:Drivers/STM32F7xx_HAL_Driver/Inc/stm32f7xx_ll_dma.h **** /** @defgroup DMA_LL_Private_Variables DMA Private Variables
  44:Drivers/STM32F7xx_HAL_Driver/Inc/stm32f7xx_ll_dma.h ****   * @{
  45:Drivers/STM32F7xx_HAL_Driver/Inc/stm32f7xx_ll_dma.h ****   */
  46:Drivers/STM32F7xx_HAL_Driver/Inc/stm32f7xx_ll_dma.h **** /* Array used to get the DMA stream register offset versus stream index LL_DMA_STREAM_x */
  47:Drivers/STM32F7xx_HAL_Driver/Inc/stm32f7xx_ll_dma.h **** static const uint8_t STREAM_OFFSET_TAB[] =
  48:Drivers/STM32F7xx_HAL_Driver/Inc/stm32f7xx_ll_dma.h **** {
  49:Drivers/STM32F7xx_HAL_Driver/Inc/stm32f7xx_ll_dma.h ****   (uint8_t)(DMA1_Stream0_BASE - DMA1_BASE),
  50:Drivers/STM32F7xx_HAL_Driver/Inc/stm32f7xx_ll_dma.h ****   (uint8_t)(DMA1_Stream1_BASE - DMA1_BASE),
  51:Drivers/STM32F7xx_HAL_Driver/Inc/stm32f7xx_ll_dma.h ****   (uint8_t)(DMA1_Stream2_BASE - DMA1_BASE),
  52:Drivers/STM32F7xx_HAL_Driver/Inc/stm32f7xx_ll_dma.h ****   (uint8_t)(DMA1_Stream3_BASE - DMA1_BASE),
  53:Drivers/STM32F7xx_HAL_Driver/Inc/stm32f7xx_ll_dma.h ****   (uint8_t)(DMA1_Stream4_BASE - DMA1_BASE),
  54:Drivers/STM32F7xx_HAL_Driver/Inc/stm32f7xx_ll_dma.h ****   (uint8_t)(DMA1_Stream5_BASE - DMA1_BASE),
  55:Drivers/STM32F7xx_HAL_Driver/Inc/stm32f7xx_ll_dma.h ****   (uint8_t)(DMA1_Stream6_BASE - DMA1_BASE),
  56:Drivers/STM32F7xx_HAL_Driver/Inc/stm32f7xx_ll_dma.h ****   (uint8_t)(DMA1_Stream7_BASE - DMA1_BASE)
  57:Drivers/STM32F7xx_HAL_Driver/Inc/stm32f7xx_ll_dma.h **** };
  58:Drivers/STM32F7xx_HAL_Driver/Inc/stm32f7xx_ll_dma.h **** 
  59:Drivers/STM32F7xx_HAL_Driver/Inc/stm32f7xx_ll_dma.h **** /**
  60:Drivers/STM32F7xx_HAL_Driver/Inc/stm32f7xx_ll_dma.h ****   * @}
  61:Drivers/STM32F7xx_HAL_Driver/Inc/stm32f7xx_ll_dma.h ****   */
  62:Drivers/STM32F7xx_HAL_Driver/Inc/stm32f7xx_ll_dma.h **** 
  63:Drivers/STM32F7xx_HAL_Driver/Inc/stm32f7xx_ll_dma.h **** /* Private constants ---------------------------------------------------------*/
  64:Drivers/STM32F7xx_HAL_Driver/Inc/stm32f7xx_ll_dma.h **** /** @defgroup DMA_LL_Private_Constants DMA Private Constants
  65:Drivers/STM32F7xx_HAL_Driver/Inc/stm32f7xx_ll_dma.h ****   * @{
  66:Drivers/STM32F7xx_HAL_Driver/Inc/stm32f7xx_ll_dma.h ****   */
  67:Drivers/STM32F7xx_HAL_Driver/Inc/stm32f7xx_ll_dma.h **** #if defined(DMA_SxCR_CHSEL_3)
  68:Drivers/STM32F7xx_HAL_Driver/Inc/stm32f7xx_ll_dma.h **** #define DMA_CHANNEL_SELECTION_8_15
  69:Drivers/STM32F7xx_HAL_Driver/Inc/stm32f7xx_ll_dma.h **** #endif /* DMA_SxCR_CHSEL_3 */
  70:Drivers/STM32F7xx_HAL_Driver/Inc/stm32f7xx_ll_dma.h **** /**
  71:Drivers/STM32F7xx_HAL_Driver/Inc/stm32f7xx_ll_dma.h ****   * @}
  72:Drivers/STM32F7xx_HAL_Driver/Inc/stm32f7xx_ll_dma.h ****   */
  73:Drivers/STM32F7xx_HAL_Driver/Inc/stm32f7xx_ll_dma.h **** 
  74:Drivers/STM32F7xx_HAL_Driver/Inc/stm32f7xx_ll_dma.h **** 
  75:Drivers/STM32F7xx_HAL_Driver/Inc/stm32f7xx_ll_dma.h **** /* Private macros ------------------------------------------------------------*/
  76:Drivers/STM32F7xx_HAL_Driver/Inc/stm32f7xx_ll_dma.h **** /* Exported types ------------------------------------------------------------*/
  77:Drivers/STM32F7xx_HAL_Driver/Inc/stm32f7xx_ll_dma.h **** #if defined(USE_FULL_LL_DRIVER)
  78:Drivers/STM32F7xx_HAL_Driver/Inc/stm32f7xx_ll_dma.h **** /** @defgroup DMA_LL_ES_INIT DMA Exported Init structure
  79:Drivers/STM32F7xx_HAL_Driver/Inc/stm32f7xx_ll_dma.h ****   * @{
  80:Drivers/STM32F7xx_HAL_Driver/Inc/stm32f7xx_ll_dma.h ****   */
  81:Drivers/STM32F7xx_HAL_Driver/Inc/stm32f7xx_ll_dma.h **** typedef struct
ARM GAS  C:\Users\Giorgio\AppData\Local\Temp\ccg7jKJX.s 			page 7


  82:Drivers/STM32F7xx_HAL_Driver/Inc/stm32f7xx_ll_dma.h **** {
  83:Drivers/STM32F7xx_HAL_Driver/Inc/stm32f7xx_ll_dma.h ****   uint32_t PeriphOrM2MSrcAddress;  /*!< Specifies the peripheral base address for DMA transfer
  84:Drivers/STM32F7xx_HAL_Driver/Inc/stm32f7xx_ll_dma.h ****                                         or as Source base address in case of memory to memory trans
  85:Drivers/STM32F7xx_HAL_Driver/Inc/stm32f7xx_ll_dma.h **** 
  86:Drivers/STM32F7xx_HAL_Driver/Inc/stm32f7xx_ll_dma.h ****                                         This parameter must be a value between Min_Data = 0 and Max
  87:Drivers/STM32F7xx_HAL_Driver/Inc/stm32f7xx_ll_dma.h **** 
  88:Drivers/STM32F7xx_HAL_Driver/Inc/stm32f7xx_ll_dma.h ****   uint32_t MemoryOrM2MDstAddress;  /*!< Specifies the memory base address for DMA transfer
  89:Drivers/STM32F7xx_HAL_Driver/Inc/stm32f7xx_ll_dma.h ****                                         or as Destination base address in case of memory to memory 
  90:Drivers/STM32F7xx_HAL_Driver/Inc/stm32f7xx_ll_dma.h **** 
  91:Drivers/STM32F7xx_HAL_Driver/Inc/stm32f7xx_ll_dma.h ****                                         This parameter must be a value between Min_Data = 0 and Max
  92:Drivers/STM32F7xx_HAL_Driver/Inc/stm32f7xx_ll_dma.h **** 
  93:Drivers/STM32F7xx_HAL_Driver/Inc/stm32f7xx_ll_dma.h ****   uint32_t Direction;              /*!< Specifies if the data will be transferred from memory to pe
  94:Drivers/STM32F7xx_HAL_Driver/Inc/stm32f7xx_ll_dma.h ****                                         from memory to memory or from peripheral to memory.
  95:Drivers/STM32F7xx_HAL_Driver/Inc/stm32f7xx_ll_dma.h ****                                         This parameter can be a value of @ref DMA_LL_EC_DIRECTION
  96:Drivers/STM32F7xx_HAL_Driver/Inc/stm32f7xx_ll_dma.h **** 
  97:Drivers/STM32F7xx_HAL_Driver/Inc/stm32f7xx_ll_dma.h ****                                         This feature can be modified afterwards using unitary funct
  98:Drivers/STM32F7xx_HAL_Driver/Inc/stm32f7xx_ll_dma.h **** 
  99:Drivers/STM32F7xx_HAL_Driver/Inc/stm32f7xx_ll_dma.h ****   uint32_t Mode;                   /*!< Specifies the normal or circular operation mode.
 100:Drivers/STM32F7xx_HAL_Driver/Inc/stm32f7xx_ll_dma.h ****                                         This parameter can be a value of @ref DMA_LL_EC_MODE
 101:Drivers/STM32F7xx_HAL_Driver/Inc/stm32f7xx_ll_dma.h ****                                         @note The circular buffer mode cannot be used if the memory
 102:Drivers/STM32F7xx_HAL_Driver/Inc/stm32f7xx_ll_dma.h ****                                               data transfer direction is configured on the selected
 103:Drivers/STM32F7xx_HAL_Driver/Inc/stm32f7xx_ll_dma.h **** 
 104:Drivers/STM32F7xx_HAL_Driver/Inc/stm32f7xx_ll_dma.h ****                                         This feature can be modified afterwards using unitary funct
 105:Drivers/STM32F7xx_HAL_Driver/Inc/stm32f7xx_ll_dma.h **** 
 106:Drivers/STM32F7xx_HAL_Driver/Inc/stm32f7xx_ll_dma.h ****   uint32_t PeriphOrM2MSrcIncMode;  /*!< Specifies whether the Peripheral address or Source address 
 107:Drivers/STM32F7xx_HAL_Driver/Inc/stm32f7xx_ll_dma.h ****                                         is incremented or not.
 108:Drivers/STM32F7xx_HAL_Driver/Inc/stm32f7xx_ll_dma.h ****                                         This parameter can be a value of @ref DMA_LL_EC_PERIPH
 109:Drivers/STM32F7xx_HAL_Driver/Inc/stm32f7xx_ll_dma.h **** 
 110:Drivers/STM32F7xx_HAL_Driver/Inc/stm32f7xx_ll_dma.h ****                                         This feature can be modified afterwards using unitary funct
 111:Drivers/STM32F7xx_HAL_Driver/Inc/stm32f7xx_ll_dma.h **** 
 112:Drivers/STM32F7xx_HAL_Driver/Inc/stm32f7xx_ll_dma.h ****   uint32_t MemoryOrM2MDstIncMode;  /*!< Specifies whether the Memory address or Destination address
 113:Drivers/STM32F7xx_HAL_Driver/Inc/stm32f7xx_ll_dma.h ****                                         is incremented or not.
 114:Drivers/STM32F7xx_HAL_Driver/Inc/stm32f7xx_ll_dma.h ****                                         This parameter can be a value of @ref DMA_LL_EC_MEMORY
 115:Drivers/STM32F7xx_HAL_Driver/Inc/stm32f7xx_ll_dma.h **** 
 116:Drivers/STM32F7xx_HAL_Driver/Inc/stm32f7xx_ll_dma.h ****                                         This feature can be modified afterwards using unitary funct
 117:Drivers/STM32F7xx_HAL_Driver/Inc/stm32f7xx_ll_dma.h **** 
 118:Drivers/STM32F7xx_HAL_Driver/Inc/stm32f7xx_ll_dma.h ****   uint32_t PeriphOrM2MSrcDataSize; /*!< Specifies the Peripheral data size alignment or Source data
 119:Drivers/STM32F7xx_HAL_Driver/Inc/stm32f7xx_ll_dma.h ****                                         in case of memory to memory transfer direction.
 120:Drivers/STM32F7xx_HAL_Driver/Inc/stm32f7xx_ll_dma.h ****                                         This parameter can be a value of @ref DMA_LL_EC_PDATAALIGN
 121:Drivers/STM32F7xx_HAL_Driver/Inc/stm32f7xx_ll_dma.h **** 
 122:Drivers/STM32F7xx_HAL_Driver/Inc/stm32f7xx_ll_dma.h ****                                         This feature can be modified afterwards using unitary funct
 123:Drivers/STM32F7xx_HAL_Driver/Inc/stm32f7xx_ll_dma.h **** 
 124:Drivers/STM32F7xx_HAL_Driver/Inc/stm32f7xx_ll_dma.h ****   uint32_t MemoryOrM2MDstDataSize; /*!< Specifies the Memory data size alignment or Destination dat
 125:Drivers/STM32F7xx_HAL_Driver/Inc/stm32f7xx_ll_dma.h ****                                         in case of memory to memory transfer direction.
 126:Drivers/STM32F7xx_HAL_Driver/Inc/stm32f7xx_ll_dma.h ****                                         This parameter can be a value of @ref DMA_LL_EC_MDATAALIGN
 127:Drivers/STM32F7xx_HAL_Driver/Inc/stm32f7xx_ll_dma.h **** 
 128:Drivers/STM32F7xx_HAL_Driver/Inc/stm32f7xx_ll_dma.h ****                                         This feature can be modified afterwards using unitary funct
 129:Drivers/STM32F7xx_HAL_Driver/Inc/stm32f7xx_ll_dma.h **** 
 130:Drivers/STM32F7xx_HAL_Driver/Inc/stm32f7xx_ll_dma.h ****   uint32_t NbData;                 /*!< Specifies the number of data to transfer, in data unit.
 131:Drivers/STM32F7xx_HAL_Driver/Inc/stm32f7xx_ll_dma.h ****                                         The data unit is equal to the source buffer configuration s
 132:Drivers/STM32F7xx_HAL_Driver/Inc/stm32f7xx_ll_dma.h ****                                         or MemorySize parameters depending in the transfer directio
 133:Drivers/STM32F7xx_HAL_Driver/Inc/stm32f7xx_ll_dma.h ****                                         This parameter must be a value between Min_Data = 0 and Max
 134:Drivers/STM32F7xx_HAL_Driver/Inc/stm32f7xx_ll_dma.h **** 
 135:Drivers/STM32F7xx_HAL_Driver/Inc/stm32f7xx_ll_dma.h ****                                         This feature can be modified afterwards using unitary funct
 136:Drivers/STM32F7xx_HAL_Driver/Inc/stm32f7xx_ll_dma.h **** 
 137:Drivers/STM32F7xx_HAL_Driver/Inc/stm32f7xx_ll_dma.h ****   uint32_t Channel;                /*!< Specifies the peripheral channel.
 138:Drivers/STM32F7xx_HAL_Driver/Inc/stm32f7xx_ll_dma.h ****                                         This parameter can be a value of @ref DMA_LL_EC_CHANNEL
ARM GAS  C:\Users\Giorgio\AppData\Local\Temp\ccg7jKJX.s 			page 8


 139:Drivers/STM32F7xx_HAL_Driver/Inc/stm32f7xx_ll_dma.h **** 
 140:Drivers/STM32F7xx_HAL_Driver/Inc/stm32f7xx_ll_dma.h ****                                         This feature can be modified afterwards using unitary funct
 141:Drivers/STM32F7xx_HAL_Driver/Inc/stm32f7xx_ll_dma.h **** 
 142:Drivers/STM32F7xx_HAL_Driver/Inc/stm32f7xx_ll_dma.h ****   uint32_t Priority;               /*!< Specifies the channel priority level.
 143:Drivers/STM32F7xx_HAL_Driver/Inc/stm32f7xx_ll_dma.h ****                                         This parameter can be a value of @ref DMA_LL_EC_PRIORITY
 144:Drivers/STM32F7xx_HAL_Driver/Inc/stm32f7xx_ll_dma.h **** 
 145:Drivers/STM32F7xx_HAL_Driver/Inc/stm32f7xx_ll_dma.h ****                                         This feature can be modified afterwards using unitary funct
 146:Drivers/STM32F7xx_HAL_Driver/Inc/stm32f7xx_ll_dma.h ****                                         
 147:Drivers/STM32F7xx_HAL_Driver/Inc/stm32f7xx_ll_dma.h ****   uint32_t FIFOMode;               /*!< Specifies if the FIFO mode or Direct mode will be used for 
 148:Drivers/STM32F7xx_HAL_Driver/Inc/stm32f7xx_ll_dma.h ****                                         This parameter can be a value of @ref DMA_LL_FIFOMODE
 149:Drivers/STM32F7xx_HAL_Driver/Inc/stm32f7xx_ll_dma.h ****                                         @note The Direct mode (FIFO mode disabled) cannot be used i
 150:Drivers/STM32F7xx_HAL_Driver/Inc/stm32f7xx_ll_dma.h ****                                         memory-to-memory data transfer is configured on the selecte
 151:Drivers/STM32F7xx_HAL_Driver/Inc/stm32f7xx_ll_dma.h **** 
 152:Drivers/STM32F7xx_HAL_Driver/Inc/stm32f7xx_ll_dma.h ****                                         This feature can be modified afterwards using unitary funct
 153:Drivers/STM32F7xx_HAL_Driver/Inc/stm32f7xx_ll_dma.h **** 
 154:Drivers/STM32F7xx_HAL_Driver/Inc/stm32f7xx_ll_dma.h ****   uint32_t FIFOThreshold;          /*!< Specifies the FIFO threshold level.
 155:Drivers/STM32F7xx_HAL_Driver/Inc/stm32f7xx_ll_dma.h ****                                         This parameter can be a value of @ref DMA_LL_EC_FIFOTHRESHO
 156:Drivers/STM32F7xx_HAL_Driver/Inc/stm32f7xx_ll_dma.h **** 
 157:Drivers/STM32F7xx_HAL_Driver/Inc/stm32f7xx_ll_dma.h ****                                         This feature can be modified afterwards using unitary funct
 158:Drivers/STM32F7xx_HAL_Driver/Inc/stm32f7xx_ll_dma.h **** 
 159:Drivers/STM32F7xx_HAL_Driver/Inc/stm32f7xx_ll_dma.h ****   uint32_t MemBurst;               /*!< Specifies the Burst transfer configuration for the memory t
 160:Drivers/STM32F7xx_HAL_Driver/Inc/stm32f7xx_ll_dma.h ****                                         It specifies the amount of data to be transferred in a sing
 161:Drivers/STM32F7xx_HAL_Driver/Inc/stm32f7xx_ll_dma.h ****                                         transaction.
 162:Drivers/STM32F7xx_HAL_Driver/Inc/stm32f7xx_ll_dma.h ****                                         This parameter can be a value of @ref DMA_LL_EC_MBURST 
 163:Drivers/STM32F7xx_HAL_Driver/Inc/stm32f7xx_ll_dma.h ****                                         @note The burst mode is possible only if the address Increm
 164:Drivers/STM32F7xx_HAL_Driver/Inc/stm32f7xx_ll_dma.h **** 
 165:Drivers/STM32F7xx_HAL_Driver/Inc/stm32f7xx_ll_dma.h ****                                         This feature can be modified afterwards using unitary funct
 166:Drivers/STM32F7xx_HAL_Driver/Inc/stm32f7xx_ll_dma.h **** 
 167:Drivers/STM32F7xx_HAL_Driver/Inc/stm32f7xx_ll_dma.h ****   uint32_t PeriphBurst;            /*!< Specifies the Burst transfer configuration for the peripher
 168:Drivers/STM32F7xx_HAL_Driver/Inc/stm32f7xx_ll_dma.h ****                                         It specifies the amount of data to be transferred in a sing
 169:Drivers/STM32F7xx_HAL_Driver/Inc/stm32f7xx_ll_dma.h ****                                         transaction. 
 170:Drivers/STM32F7xx_HAL_Driver/Inc/stm32f7xx_ll_dma.h ****                                         This parameter can be a value of @ref DMA_LL_EC_PBURST
 171:Drivers/STM32F7xx_HAL_Driver/Inc/stm32f7xx_ll_dma.h ****                                         @note The burst mode is possible only if the address Increm
 172:Drivers/STM32F7xx_HAL_Driver/Inc/stm32f7xx_ll_dma.h **** 
 173:Drivers/STM32F7xx_HAL_Driver/Inc/stm32f7xx_ll_dma.h ****                                         This feature can be modified afterwards using unitary funct
 174:Drivers/STM32F7xx_HAL_Driver/Inc/stm32f7xx_ll_dma.h **** 
 175:Drivers/STM32F7xx_HAL_Driver/Inc/stm32f7xx_ll_dma.h **** } LL_DMA_InitTypeDef;
 176:Drivers/STM32F7xx_HAL_Driver/Inc/stm32f7xx_ll_dma.h **** /**
 177:Drivers/STM32F7xx_HAL_Driver/Inc/stm32f7xx_ll_dma.h ****   * @}
 178:Drivers/STM32F7xx_HAL_Driver/Inc/stm32f7xx_ll_dma.h ****   */
 179:Drivers/STM32F7xx_HAL_Driver/Inc/stm32f7xx_ll_dma.h **** #endif /*USE_FULL_LL_DRIVER*/
 180:Drivers/STM32F7xx_HAL_Driver/Inc/stm32f7xx_ll_dma.h **** /* Exported constants --------------------------------------------------------*/
 181:Drivers/STM32F7xx_HAL_Driver/Inc/stm32f7xx_ll_dma.h **** /** @defgroup DMA_LL_Exported_Constants DMA Exported Constants
 182:Drivers/STM32F7xx_HAL_Driver/Inc/stm32f7xx_ll_dma.h ****   * @{
 183:Drivers/STM32F7xx_HAL_Driver/Inc/stm32f7xx_ll_dma.h ****   */
 184:Drivers/STM32F7xx_HAL_Driver/Inc/stm32f7xx_ll_dma.h **** 
 185:Drivers/STM32F7xx_HAL_Driver/Inc/stm32f7xx_ll_dma.h **** /** @defgroup DMA_LL_EC_STREAM STREAM
 186:Drivers/STM32F7xx_HAL_Driver/Inc/stm32f7xx_ll_dma.h ****   * @{
 187:Drivers/STM32F7xx_HAL_Driver/Inc/stm32f7xx_ll_dma.h ****   */
 188:Drivers/STM32F7xx_HAL_Driver/Inc/stm32f7xx_ll_dma.h **** #define LL_DMA_STREAM_0                   0x00000000U
 189:Drivers/STM32F7xx_HAL_Driver/Inc/stm32f7xx_ll_dma.h **** #define LL_DMA_STREAM_1                   0x00000001U
 190:Drivers/STM32F7xx_HAL_Driver/Inc/stm32f7xx_ll_dma.h **** #define LL_DMA_STREAM_2                   0x00000002U
 191:Drivers/STM32F7xx_HAL_Driver/Inc/stm32f7xx_ll_dma.h **** #define LL_DMA_STREAM_3                   0x00000003U
 192:Drivers/STM32F7xx_HAL_Driver/Inc/stm32f7xx_ll_dma.h **** #define LL_DMA_STREAM_4                   0x00000004U
 193:Drivers/STM32F7xx_HAL_Driver/Inc/stm32f7xx_ll_dma.h **** #define LL_DMA_STREAM_5                   0x00000005U
 194:Drivers/STM32F7xx_HAL_Driver/Inc/stm32f7xx_ll_dma.h **** #define LL_DMA_STREAM_6                   0x00000006U
 195:Drivers/STM32F7xx_HAL_Driver/Inc/stm32f7xx_ll_dma.h **** #define LL_DMA_STREAM_7                   0x00000007U
ARM GAS  C:\Users\Giorgio\AppData\Local\Temp\ccg7jKJX.s 			page 9


 196:Drivers/STM32F7xx_HAL_Driver/Inc/stm32f7xx_ll_dma.h **** #define LL_DMA_STREAM_ALL                 0xFFFF0000U
 197:Drivers/STM32F7xx_HAL_Driver/Inc/stm32f7xx_ll_dma.h **** /**
 198:Drivers/STM32F7xx_HAL_Driver/Inc/stm32f7xx_ll_dma.h ****   * @}
 199:Drivers/STM32F7xx_HAL_Driver/Inc/stm32f7xx_ll_dma.h ****   */
 200:Drivers/STM32F7xx_HAL_Driver/Inc/stm32f7xx_ll_dma.h **** 
 201:Drivers/STM32F7xx_HAL_Driver/Inc/stm32f7xx_ll_dma.h **** /** @defgroup DMA_LL_EC_DIRECTION DIRECTION
 202:Drivers/STM32F7xx_HAL_Driver/Inc/stm32f7xx_ll_dma.h ****   * @{
 203:Drivers/STM32F7xx_HAL_Driver/Inc/stm32f7xx_ll_dma.h ****   */
 204:Drivers/STM32F7xx_HAL_Driver/Inc/stm32f7xx_ll_dma.h **** #define LL_DMA_DIRECTION_PERIPH_TO_MEMORY 0x00000000U               /*!< Peripheral to memory direc
 205:Drivers/STM32F7xx_HAL_Driver/Inc/stm32f7xx_ll_dma.h **** #define LL_DMA_DIRECTION_MEMORY_TO_PERIPH DMA_SxCR_DIR_0            /*!< Memory to peripheral direc
 206:Drivers/STM32F7xx_HAL_Driver/Inc/stm32f7xx_ll_dma.h **** #define LL_DMA_DIRECTION_MEMORY_TO_MEMORY DMA_SxCR_DIR_1            /*!< Memory to memory direction
 207:Drivers/STM32F7xx_HAL_Driver/Inc/stm32f7xx_ll_dma.h **** /**
 208:Drivers/STM32F7xx_HAL_Driver/Inc/stm32f7xx_ll_dma.h ****   * @}
 209:Drivers/STM32F7xx_HAL_Driver/Inc/stm32f7xx_ll_dma.h ****   */
 210:Drivers/STM32F7xx_HAL_Driver/Inc/stm32f7xx_ll_dma.h **** 
 211:Drivers/STM32F7xx_HAL_Driver/Inc/stm32f7xx_ll_dma.h **** /** @defgroup DMA_LL_EC_MODE MODE
 212:Drivers/STM32F7xx_HAL_Driver/Inc/stm32f7xx_ll_dma.h ****   * @{
 213:Drivers/STM32F7xx_HAL_Driver/Inc/stm32f7xx_ll_dma.h ****   */
 214:Drivers/STM32F7xx_HAL_Driver/Inc/stm32f7xx_ll_dma.h **** #define LL_DMA_MODE_NORMAL                0x00000000U               /*!< Normal Mode               
 215:Drivers/STM32F7xx_HAL_Driver/Inc/stm32f7xx_ll_dma.h **** #define LL_DMA_MODE_CIRCULAR              DMA_SxCR_CIRC             /*!< Circular Mode             
 216:Drivers/STM32F7xx_HAL_Driver/Inc/stm32f7xx_ll_dma.h **** #define LL_DMA_MODE_PFCTRL                DMA_SxCR_PFCTRL           /*!< Peripheral flow control mo
 217:Drivers/STM32F7xx_HAL_Driver/Inc/stm32f7xx_ll_dma.h **** /**
 218:Drivers/STM32F7xx_HAL_Driver/Inc/stm32f7xx_ll_dma.h ****   * @}
 219:Drivers/STM32F7xx_HAL_Driver/Inc/stm32f7xx_ll_dma.h ****   */
 220:Drivers/STM32F7xx_HAL_Driver/Inc/stm32f7xx_ll_dma.h **** 
 221:Drivers/STM32F7xx_HAL_Driver/Inc/stm32f7xx_ll_dma.h **** /** @defgroup DMA_LL_EC_DOUBLEBUFFER_MODE DOUBLE BUFFER MODE
 222:Drivers/STM32F7xx_HAL_Driver/Inc/stm32f7xx_ll_dma.h ****   * @{
 223:Drivers/STM32F7xx_HAL_Driver/Inc/stm32f7xx_ll_dma.h ****   */
 224:Drivers/STM32F7xx_HAL_Driver/Inc/stm32f7xx_ll_dma.h **** #define LL_DMA_DOUBLEBUFFER_MODE_DISABLE  0x00000000U               /*!< Disable double buffering m
 225:Drivers/STM32F7xx_HAL_Driver/Inc/stm32f7xx_ll_dma.h **** #define LL_DMA_DOUBLEBUFFER_MODE_ENABLE   DMA_SxCR_DBM              /*!< Enable double buffering mo
 226:Drivers/STM32F7xx_HAL_Driver/Inc/stm32f7xx_ll_dma.h **** /**
 227:Drivers/STM32F7xx_HAL_Driver/Inc/stm32f7xx_ll_dma.h ****   * @}
 228:Drivers/STM32F7xx_HAL_Driver/Inc/stm32f7xx_ll_dma.h ****   */
 229:Drivers/STM32F7xx_HAL_Driver/Inc/stm32f7xx_ll_dma.h **** 
 230:Drivers/STM32F7xx_HAL_Driver/Inc/stm32f7xx_ll_dma.h **** /** @defgroup DMA_LL_EC_PERIPH PERIPH
 231:Drivers/STM32F7xx_HAL_Driver/Inc/stm32f7xx_ll_dma.h ****   * @{
 232:Drivers/STM32F7xx_HAL_Driver/Inc/stm32f7xx_ll_dma.h ****   */
 233:Drivers/STM32F7xx_HAL_Driver/Inc/stm32f7xx_ll_dma.h **** #define LL_DMA_PERIPH_NOINCREMENT         0x00000000U               /*!< Peripheral increment mode 
 234:Drivers/STM32F7xx_HAL_Driver/Inc/stm32f7xx_ll_dma.h **** #define LL_DMA_PERIPH_INCREMENT           DMA_SxCR_PINC             /*!< Peripheral increment mode 
 235:Drivers/STM32F7xx_HAL_Driver/Inc/stm32f7xx_ll_dma.h **** /**
 236:Drivers/STM32F7xx_HAL_Driver/Inc/stm32f7xx_ll_dma.h ****   * @}
 237:Drivers/STM32F7xx_HAL_Driver/Inc/stm32f7xx_ll_dma.h ****   */
 238:Drivers/STM32F7xx_HAL_Driver/Inc/stm32f7xx_ll_dma.h **** 
 239:Drivers/STM32F7xx_HAL_Driver/Inc/stm32f7xx_ll_dma.h **** /** @defgroup DMA_LL_EC_MEMORY MEMORY
 240:Drivers/STM32F7xx_HAL_Driver/Inc/stm32f7xx_ll_dma.h ****   * @{
 241:Drivers/STM32F7xx_HAL_Driver/Inc/stm32f7xx_ll_dma.h ****   */
 242:Drivers/STM32F7xx_HAL_Driver/Inc/stm32f7xx_ll_dma.h **** #define LL_DMA_MEMORY_NOINCREMENT         0x00000000U               /*!< Memory increment mode Disa
 243:Drivers/STM32F7xx_HAL_Driver/Inc/stm32f7xx_ll_dma.h **** #define LL_DMA_MEMORY_INCREMENT           DMA_SxCR_MINC             /*!< Memory increment mode Enab
 244:Drivers/STM32F7xx_HAL_Driver/Inc/stm32f7xx_ll_dma.h **** /**
 245:Drivers/STM32F7xx_HAL_Driver/Inc/stm32f7xx_ll_dma.h ****   * @}
 246:Drivers/STM32F7xx_HAL_Driver/Inc/stm32f7xx_ll_dma.h ****   */
 247:Drivers/STM32F7xx_HAL_Driver/Inc/stm32f7xx_ll_dma.h **** 
 248:Drivers/STM32F7xx_HAL_Driver/Inc/stm32f7xx_ll_dma.h **** /** @defgroup DMA_LL_EC_PDATAALIGN PDATAALIGN
 249:Drivers/STM32F7xx_HAL_Driver/Inc/stm32f7xx_ll_dma.h ****   * @{
 250:Drivers/STM32F7xx_HAL_Driver/Inc/stm32f7xx_ll_dma.h ****   */
 251:Drivers/STM32F7xx_HAL_Driver/Inc/stm32f7xx_ll_dma.h **** #define LL_DMA_PDATAALIGN_BYTE            0x00000000U               /*!< Peripheral data alignment 
 252:Drivers/STM32F7xx_HAL_Driver/Inc/stm32f7xx_ll_dma.h **** #define LL_DMA_PDATAALIGN_HALFWORD        DMA_SxCR_PSIZE_0          /*!< Peripheral data alignment 
ARM GAS  C:\Users\Giorgio\AppData\Local\Temp\ccg7jKJX.s 			page 10


 253:Drivers/STM32F7xx_HAL_Driver/Inc/stm32f7xx_ll_dma.h **** #define LL_DMA_PDATAALIGN_WORD            DMA_SxCR_PSIZE_1          /*!< Peripheral data alignment 
 254:Drivers/STM32F7xx_HAL_Driver/Inc/stm32f7xx_ll_dma.h **** /**
 255:Drivers/STM32F7xx_HAL_Driver/Inc/stm32f7xx_ll_dma.h ****   * @}
 256:Drivers/STM32F7xx_HAL_Driver/Inc/stm32f7xx_ll_dma.h ****   */
 257:Drivers/STM32F7xx_HAL_Driver/Inc/stm32f7xx_ll_dma.h **** 
 258:Drivers/STM32F7xx_HAL_Driver/Inc/stm32f7xx_ll_dma.h **** /** @defgroup DMA_LL_EC_MDATAALIGN MDATAALIGN
 259:Drivers/STM32F7xx_HAL_Driver/Inc/stm32f7xx_ll_dma.h ****   * @{
 260:Drivers/STM32F7xx_HAL_Driver/Inc/stm32f7xx_ll_dma.h ****   */
 261:Drivers/STM32F7xx_HAL_Driver/Inc/stm32f7xx_ll_dma.h **** #define LL_DMA_MDATAALIGN_BYTE            0x00000000U               /*!< Memory data alignment : By
 262:Drivers/STM32F7xx_HAL_Driver/Inc/stm32f7xx_ll_dma.h **** #define LL_DMA_MDATAALIGN_HALFWORD        DMA_SxCR_MSIZE_0          /*!< Memory data alignment : Ha
 263:Drivers/STM32F7xx_HAL_Driver/Inc/stm32f7xx_ll_dma.h **** #define LL_DMA_MDATAALIGN_WORD            DMA_SxCR_MSIZE_1          /*!< Memory data alignment : Wo
 264:Drivers/STM32F7xx_HAL_Driver/Inc/stm32f7xx_ll_dma.h **** /**
 265:Drivers/STM32F7xx_HAL_Driver/Inc/stm32f7xx_ll_dma.h ****   * @}
 266:Drivers/STM32F7xx_HAL_Driver/Inc/stm32f7xx_ll_dma.h ****   */
 267:Drivers/STM32F7xx_HAL_Driver/Inc/stm32f7xx_ll_dma.h **** 
 268:Drivers/STM32F7xx_HAL_Driver/Inc/stm32f7xx_ll_dma.h **** /** @defgroup DMA_LL_EC_OFFSETSIZE OFFSETSIZE
 269:Drivers/STM32F7xx_HAL_Driver/Inc/stm32f7xx_ll_dma.h ****   * @{
 270:Drivers/STM32F7xx_HAL_Driver/Inc/stm32f7xx_ll_dma.h ****   */
 271:Drivers/STM32F7xx_HAL_Driver/Inc/stm32f7xx_ll_dma.h **** #define LL_DMA_OFFSETSIZE_PSIZE           0x00000000U               /*!< Peripheral increment offse
 272:Drivers/STM32F7xx_HAL_Driver/Inc/stm32f7xx_ll_dma.h **** #define LL_DMA_OFFSETSIZE_FIXEDTO4        DMA_SxCR_PINCOS           /*!< Peripheral increment offse
 273:Drivers/STM32F7xx_HAL_Driver/Inc/stm32f7xx_ll_dma.h **** /**
 274:Drivers/STM32F7xx_HAL_Driver/Inc/stm32f7xx_ll_dma.h ****   * @}
 275:Drivers/STM32F7xx_HAL_Driver/Inc/stm32f7xx_ll_dma.h ****   */
 276:Drivers/STM32F7xx_HAL_Driver/Inc/stm32f7xx_ll_dma.h **** 
 277:Drivers/STM32F7xx_HAL_Driver/Inc/stm32f7xx_ll_dma.h **** /** @defgroup DMA_LL_EC_PRIORITY PRIORITY
 278:Drivers/STM32F7xx_HAL_Driver/Inc/stm32f7xx_ll_dma.h ****   * @{
 279:Drivers/STM32F7xx_HAL_Driver/Inc/stm32f7xx_ll_dma.h ****   */
 280:Drivers/STM32F7xx_HAL_Driver/Inc/stm32f7xx_ll_dma.h **** #define LL_DMA_PRIORITY_LOW               0x00000000U               /*!< Priority level : Low      
 281:Drivers/STM32F7xx_HAL_Driver/Inc/stm32f7xx_ll_dma.h **** #define LL_DMA_PRIORITY_MEDIUM            DMA_SxCR_PL_0             /*!< Priority level : Medium   
 282:Drivers/STM32F7xx_HAL_Driver/Inc/stm32f7xx_ll_dma.h **** #define LL_DMA_PRIORITY_HIGH              DMA_SxCR_PL_1             /*!< Priority level : High     
 283:Drivers/STM32F7xx_HAL_Driver/Inc/stm32f7xx_ll_dma.h **** #define LL_DMA_PRIORITY_VERYHIGH          DMA_SxCR_PL               /*!< Priority level : Very_High
 284:Drivers/STM32F7xx_HAL_Driver/Inc/stm32f7xx_ll_dma.h **** /**
 285:Drivers/STM32F7xx_HAL_Driver/Inc/stm32f7xx_ll_dma.h ****   * @}
 286:Drivers/STM32F7xx_HAL_Driver/Inc/stm32f7xx_ll_dma.h ****   */
 287:Drivers/STM32F7xx_HAL_Driver/Inc/stm32f7xx_ll_dma.h **** 
 288:Drivers/STM32F7xx_HAL_Driver/Inc/stm32f7xx_ll_dma.h **** /** @defgroup DMA_LL_EC_CHANNEL CHANNEL
 289:Drivers/STM32F7xx_HAL_Driver/Inc/stm32f7xx_ll_dma.h ****   * @{
 290:Drivers/STM32F7xx_HAL_Driver/Inc/stm32f7xx_ll_dma.h ****   */
 291:Drivers/STM32F7xx_HAL_Driver/Inc/stm32f7xx_ll_dma.h **** #define LL_DMA_CHANNEL_0                  0x00000000U                                              
 292:Drivers/STM32F7xx_HAL_Driver/Inc/stm32f7xx_ll_dma.h **** #define LL_DMA_CHANNEL_1                  DMA_SxCR_CHSEL_0                                         
 293:Drivers/STM32F7xx_HAL_Driver/Inc/stm32f7xx_ll_dma.h **** #define LL_DMA_CHANNEL_2                  DMA_SxCR_CHSEL_1                                         
 294:Drivers/STM32F7xx_HAL_Driver/Inc/stm32f7xx_ll_dma.h **** #define LL_DMA_CHANNEL_3                  (DMA_SxCR_CHSEL_0 | DMA_SxCR_CHSEL_1)                    
 295:Drivers/STM32F7xx_HAL_Driver/Inc/stm32f7xx_ll_dma.h **** #define LL_DMA_CHANNEL_4                  DMA_SxCR_CHSEL_2                                         
 296:Drivers/STM32F7xx_HAL_Driver/Inc/stm32f7xx_ll_dma.h **** #define LL_DMA_CHANNEL_5                  (DMA_SxCR_CHSEL_2 | DMA_SxCR_CHSEL_0)                    
 297:Drivers/STM32F7xx_HAL_Driver/Inc/stm32f7xx_ll_dma.h **** #define LL_DMA_CHANNEL_6                  (DMA_SxCR_CHSEL_2 | DMA_SxCR_CHSEL_1)                    
 298:Drivers/STM32F7xx_HAL_Driver/Inc/stm32f7xx_ll_dma.h **** #define LL_DMA_CHANNEL_7                  (DMA_SxCR_CHSEL_2 | DMA_SxCR_CHSEL_1 | DMA_SxCR_CHSEL_0) 
 299:Drivers/STM32F7xx_HAL_Driver/Inc/stm32f7xx_ll_dma.h **** #if defined(DMA_CHANNEL_SELECTION_8_15)
 300:Drivers/STM32F7xx_HAL_Driver/Inc/stm32f7xx_ll_dma.h **** #define LL_DMA_CHANNEL_8                  DMA_SxCR_CHSEL_3                                         
 301:Drivers/STM32F7xx_HAL_Driver/Inc/stm32f7xx_ll_dma.h **** #define LL_DMA_CHANNEL_9                  (DMA_SxCR_CHSEL_3 | DMA_SxCR_CHSEL_0)                    
 302:Drivers/STM32F7xx_HAL_Driver/Inc/stm32f7xx_ll_dma.h **** #define LL_DMA_CHANNEL_10                 (DMA_SxCR_CHSEL_3 | DMA_SxCR_CHSEL_1)                    
 303:Drivers/STM32F7xx_HAL_Driver/Inc/stm32f7xx_ll_dma.h **** #define LL_DMA_CHANNEL_11                 (DMA_SxCR_CHSEL_3 | DMA_SxCR_CHSEL_1 | DMA_SxCR_CHSEL_0) 
 304:Drivers/STM32F7xx_HAL_Driver/Inc/stm32f7xx_ll_dma.h **** #define LL_DMA_CHANNEL_12                 (DMA_SxCR_CHSEL_3 | DMA_SxCR_CHSEL_2)                    
 305:Drivers/STM32F7xx_HAL_Driver/Inc/stm32f7xx_ll_dma.h **** #define LL_DMA_CHANNEL_13                 (DMA_SxCR_CHSEL_3 | DMA_SxCR_CHSEL_2 | DMA_SxCR_CHSEL_0) 
 306:Drivers/STM32F7xx_HAL_Driver/Inc/stm32f7xx_ll_dma.h **** #define LL_DMA_CHANNEL_14                 (DMA_SxCR_CHSEL_3 | DMA_SxCR_CHSEL_2 | DMA_SxCR_CHSEL_1) 
 307:Drivers/STM32F7xx_HAL_Driver/Inc/stm32f7xx_ll_dma.h **** #define LL_DMA_CHANNEL_15                 DMA_SxCR_CHSEL                                           
 308:Drivers/STM32F7xx_HAL_Driver/Inc/stm32f7xx_ll_dma.h **** #endif /* DMA_CHANNEL_SELECTION_8_15 */
 309:Drivers/STM32F7xx_HAL_Driver/Inc/stm32f7xx_ll_dma.h **** /**
ARM GAS  C:\Users\Giorgio\AppData\Local\Temp\ccg7jKJX.s 			page 11


 310:Drivers/STM32F7xx_HAL_Driver/Inc/stm32f7xx_ll_dma.h ****   * @}
 311:Drivers/STM32F7xx_HAL_Driver/Inc/stm32f7xx_ll_dma.h ****   */
 312:Drivers/STM32F7xx_HAL_Driver/Inc/stm32f7xx_ll_dma.h **** 
 313:Drivers/STM32F7xx_HAL_Driver/Inc/stm32f7xx_ll_dma.h **** /** @defgroup DMA_LL_EC_MBURST MBURST
 314:Drivers/STM32F7xx_HAL_Driver/Inc/stm32f7xx_ll_dma.h ****   * @{
 315:Drivers/STM32F7xx_HAL_Driver/Inc/stm32f7xx_ll_dma.h ****   */
 316:Drivers/STM32F7xx_HAL_Driver/Inc/stm32f7xx_ll_dma.h **** #define LL_DMA_MBURST_SINGLE              0x00000000U                             /*!< Memory burst
 317:Drivers/STM32F7xx_HAL_Driver/Inc/stm32f7xx_ll_dma.h **** #define LL_DMA_MBURST_INC4                DMA_SxCR_MBURST_0                       /*!< Memory burst
 318:Drivers/STM32F7xx_HAL_Driver/Inc/stm32f7xx_ll_dma.h **** #define LL_DMA_MBURST_INC8                DMA_SxCR_MBURST_1                       /*!< Memory burst
 319:Drivers/STM32F7xx_HAL_Driver/Inc/stm32f7xx_ll_dma.h **** #define LL_DMA_MBURST_INC16               (DMA_SxCR_MBURST_0 | DMA_SxCR_MBURST_1) /*!< Memory burst
 320:Drivers/STM32F7xx_HAL_Driver/Inc/stm32f7xx_ll_dma.h **** /**
 321:Drivers/STM32F7xx_HAL_Driver/Inc/stm32f7xx_ll_dma.h ****   * @}
 322:Drivers/STM32F7xx_HAL_Driver/Inc/stm32f7xx_ll_dma.h ****   */
 323:Drivers/STM32F7xx_HAL_Driver/Inc/stm32f7xx_ll_dma.h **** 
 324:Drivers/STM32F7xx_HAL_Driver/Inc/stm32f7xx_ll_dma.h **** /** @defgroup DMA_LL_EC_PBURST PBURST
 325:Drivers/STM32F7xx_HAL_Driver/Inc/stm32f7xx_ll_dma.h ****   * @{
 326:Drivers/STM32F7xx_HAL_Driver/Inc/stm32f7xx_ll_dma.h ****   */
 327:Drivers/STM32F7xx_HAL_Driver/Inc/stm32f7xx_ll_dma.h **** #define LL_DMA_PBURST_SINGLE              0x00000000U                             /*!< Peripheral b
 328:Drivers/STM32F7xx_HAL_Driver/Inc/stm32f7xx_ll_dma.h **** #define LL_DMA_PBURST_INC4                DMA_SxCR_PBURST_0                       /*!< Peripheral b
 329:Drivers/STM32F7xx_HAL_Driver/Inc/stm32f7xx_ll_dma.h **** #define LL_DMA_PBURST_INC8                DMA_SxCR_PBURST_1                       /*!< Peripheral b
 330:Drivers/STM32F7xx_HAL_Driver/Inc/stm32f7xx_ll_dma.h **** #define LL_DMA_PBURST_INC16               (DMA_SxCR_PBURST_0 | DMA_SxCR_PBURST_1) /*!< Peripheral b
 331:Drivers/STM32F7xx_HAL_Driver/Inc/stm32f7xx_ll_dma.h **** /**
 332:Drivers/STM32F7xx_HAL_Driver/Inc/stm32f7xx_ll_dma.h ****   * @}
 333:Drivers/STM32F7xx_HAL_Driver/Inc/stm32f7xx_ll_dma.h ****   */
 334:Drivers/STM32F7xx_HAL_Driver/Inc/stm32f7xx_ll_dma.h ****   
 335:Drivers/STM32F7xx_HAL_Driver/Inc/stm32f7xx_ll_dma.h **** /** @defgroup DMA_LL_FIFOMODE DMA_LL_FIFOMODE
 336:Drivers/STM32F7xx_HAL_Driver/Inc/stm32f7xx_ll_dma.h ****   * @{
 337:Drivers/STM32F7xx_HAL_Driver/Inc/stm32f7xx_ll_dma.h ****   */
 338:Drivers/STM32F7xx_HAL_Driver/Inc/stm32f7xx_ll_dma.h **** #define LL_DMA_FIFOMODE_DISABLE           0x00000000U                             /*!< FIFO mode di
 339:Drivers/STM32F7xx_HAL_Driver/Inc/stm32f7xx_ll_dma.h **** #define LL_DMA_FIFOMODE_ENABLE            DMA_SxFCR_DMDIS                         /*!< FIFO mode en
 340:Drivers/STM32F7xx_HAL_Driver/Inc/stm32f7xx_ll_dma.h **** /**
 341:Drivers/STM32F7xx_HAL_Driver/Inc/stm32f7xx_ll_dma.h ****   * @}
 342:Drivers/STM32F7xx_HAL_Driver/Inc/stm32f7xx_ll_dma.h ****   */  
 343:Drivers/STM32F7xx_HAL_Driver/Inc/stm32f7xx_ll_dma.h **** 
 344:Drivers/STM32F7xx_HAL_Driver/Inc/stm32f7xx_ll_dma.h **** /** @defgroup DMA_LL_EC_FIFOSTATUS_0 FIFOSTATUS 0
 345:Drivers/STM32F7xx_HAL_Driver/Inc/stm32f7xx_ll_dma.h ****   * @{
 346:Drivers/STM32F7xx_HAL_Driver/Inc/stm32f7xx_ll_dma.h ****   */
 347:Drivers/STM32F7xx_HAL_Driver/Inc/stm32f7xx_ll_dma.h **** #define LL_DMA_FIFOSTATUS_0_25            0x00000000U                             /*!< 0 < fifo_lev
 348:Drivers/STM32F7xx_HAL_Driver/Inc/stm32f7xx_ll_dma.h **** #define LL_DMA_FIFOSTATUS_25_50           DMA_SxFCR_FS_0                          /*!< 1/4 < fifo_l
 349:Drivers/STM32F7xx_HAL_Driver/Inc/stm32f7xx_ll_dma.h **** #define LL_DMA_FIFOSTATUS_50_75           DMA_SxFCR_FS_1                          /*!< 1/2 < fifo_l
 350:Drivers/STM32F7xx_HAL_Driver/Inc/stm32f7xx_ll_dma.h **** #define LL_DMA_FIFOSTATUS_75_100          (DMA_SxFCR_FS_1 | DMA_SxFCR_FS_0)       /*!< 3/4 < fifo_l
 351:Drivers/STM32F7xx_HAL_Driver/Inc/stm32f7xx_ll_dma.h **** #define LL_DMA_FIFOSTATUS_EMPTY           DMA_SxFCR_FS_2                          /*!< FIFO is empt
 352:Drivers/STM32F7xx_HAL_Driver/Inc/stm32f7xx_ll_dma.h **** #define LL_DMA_FIFOSTATUS_FULL            (DMA_SxFCR_FS_2 | DMA_SxFCR_FS_0)       /*!< FIFO is full
 353:Drivers/STM32F7xx_HAL_Driver/Inc/stm32f7xx_ll_dma.h **** /**
 354:Drivers/STM32F7xx_HAL_Driver/Inc/stm32f7xx_ll_dma.h ****   * @}
 355:Drivers/STM32F7xx_HAL_Driver/Inc/stm32f7xx_ll_dma.h ****   */
 356:Drivers/STM32F7xx_HAL_Driver/Inc/stm32f7xx_ll_dma.h **** 
 357:Drivers/STM32F7xx_HAL_Driver/Inc/stm32f7xx_ll_dma.h **** /** @defgroup DMA_LL_EC_FIFOTHRESHOLD FIFOTHRESHOLD
 358:Drivers/STM32F7xx_HAL_Driver/Inc/stm32f7xx_ll_dma.h ****   * @{
 359:Drivers/STM32F7xx_HAL_Driver/Inc/stm32f7xx_ll_dma.h ****   */
 360:Drivers/STM32F7xx_HAL_Driver/Inc/stm32f7xx_ll_dma.h **** #define LL_DMA_FIFOTHRESHOLD_1_4          0x00000000U                             /*!< FIFO thresho
 361:Drivers/STM32F7xx_HAL_Driver/Inc/stm32f7xx_ll_dma.h **** #define LL_DMA_FIFOTHRESHOLD_1_2          DMA_SxFCR_FTH_0                         /*!< FIFO thresho
 362:Drivers/STM32F7xx_HAL_Driver/Inc/stm32f7xx_ll_dma.h **** #define LL_DMA_FIFOTHRESHOLD_3_4          DMA_SxFCR_FTH_1                         /*!< FIFO thresho
 363:Drivers/STM32F7xx_HAL_Driver/Inc/stm32f7xx_ll_dma.h **** #define LL_DMA_FIFOTHRESHOLD_FULL         DMA_SxFCR_FTH                           /*!< FIFO thresho
 364:Drivers/STM32F7xx_HAL_Driver/Inc/stm32f7xx_ll_dma.h **** /**
 365:Drivers/STM32F7xx_HAL_Driver/Inc/stm32f7xx_ll_dma.h ****   * @}
 366:Drivers/STM32F7xx_HAL_Driver/Inc/stm32f7xx_ll_dma.h ****   */
ARM GAS  C:\Users\Giorgio\AppData\Local\Temp\ccg7jKJX.s 			page 12


 367:Drivers/STM32F7xx_HAL_Driver/Inc/stm32f7xx_ll_dma.h ****     
 368:Drivers/STM32F7xx_HAL_Driver/Inc/stm32f7xx_ll_dma.h **** /** @defgroup DMA_LL_EC_CURRENTTARGETMEM CURRENTTARGETMEM
 369:Drivers/STM32F7xx_HAL_Driver/Inc/stm32f7xx_ll_dma.h ****   * @{
 370:Drivers/STM32F7xx_HAL_Driver/Inc/stm32f7xx_ll_dma.h ****   */
 371:Drivers/STM32F7xx_HAL_Driver/Inc/stm32f7xx_ll_dma.h **** #define LL_DMA_CURRENTTARGETMEM0          0x00000000U                             /*!< Set CurrentT
 372:Drivers/STM32F7xx_HAL_Driver/Inc/stm32f7xx_ll_dma.h **** #define LL_DMA_CURRENTTARGETMEM1          DMA_SxCR_CT                             /*!< Set CurrentT
 373:Drivers/STM32F7xx_HAL_Driver/Inc/stm32f7xx_ll_dma.h **** /**
 374:Drivers/STM32F7xx_HAL_Driver/Inc/stm32f7xx_ll_dma.h ****   * @}
 375:Drivers/STM32F7xx_HAL_Driver/Inc/stm32f7xx_ll_dma.h ****   */
 376:Drivers/STM32F7xx_HAL_Driver/Inc/stm32f7xx_ll_dma.h **** 
 377:Drivers/STM32F7xx_HAL_Driver/Inc/stm32f7xx_ll_dma.h **** /**
 378:Drivers/STM32F7xx_HAL_Driver/Inc/stm32f7xx_ll_dma.h ****   * @}
 379:Drivers/STM32F7xx_HAL_Driver/Inc/stm32f7xx_ll_dma.h ****   */
 380:Drivers/STM32F7xx_HAL_Driver/Inc/stm32f7xx_ll_dma.h **** 
 381:Drivers/STM32F7xx_HAL_Driver/Inc/stm32f7xx_ll_dma.h **** /* Exported macro ------------------------------------------------------------*/
 382:Drivers/STM32F7xx_HAL_Driver/Inc/stm32f7xx_ll_dma.h **** /** @defgroup DMA_LL_Exported_Macros DMA Exported Macros
 383:Drivers/STM32F7xx_HAL_Driver/Inc/stm32f7xx_ll_dma.h ****   * @{
 384:Drivers/STM32F7xx_HAL_Driver/Inc/stm32f7xx_ll_dma.h ****   */
 385:Drivers/STM32F7xx_HAL_Driver/Inc/stm32f7xx_ll_dma.h **** 
 386:Drivers/STM32F7xx_HAL_Driver/Inc/stm32f7xx_ll_dma.h **** /** @defgroup DMA_LL_EM_WRITE_READ Common Write and read registers macros
 387:Drivers/STM32F7xx_HAL_Driver/Inc/stm32f7xx_ll_dma.h ****   * @{
 388:Drivers/STM32F7xx_HAL_Driver/Inc/stm32f7xx_ll_dma.h ****   */
 389:Drivers/STM32F7xx_HAL_Driver/Inc/stm32f7xx_ll_dma.h **** /**
 390:Drivers/STM32F7xx_HAL_Driver/Inc/stm32f7xx_ll_dma.h ****   * @brief  Write a value in DMA register
 391:Drivers/STM32F7xx_HAL_Driver/Inc/stm32f7xx_ll_dma.h ****   * @param  __INSTANCE__ DMA Instance
 392:Drivers/STM32F7xx_HAL_Driver/Inc/stm32f7xx_ll_dma.h ****   * @param  __REG__ Register to be written
 393:Drivers/STM32F7xx_HAL_Driver/Inc/stm32f7xx_ll_dma.h ****   * @param  __VALUE__ Value to be written in the register
 394:Drivers/STM32F7xx_HAL_Driver/Inc/stm32f7xx_ll_dma.h ****   * @retval None
 395:Drivers/STM32F7xx_HAL_Driver/Inc/stm32f7xx_ll_dma.h ****   */
 396:Drivers/STM32F7xx_HAL_Driver/Inc/stm32f7xx_ll_dma.h **** #define LL_DMA_WriteReg(__INSTANCE__, __REG__, __VALUE__) WRITE_REG(__INSTANCE__->__REG__, (__VALUE
 397:Drivers/STM32F7xx_HAL_Driver/Inc/stm32f7xx_ll_dma.h **** 
 398:Drivers/STM32F7xx_HAL_Driver/Inc/stm32f7xx_ll_dma.h **** /**
 399:Drivers/STM32F7xx_HAL_Driver/Inc/stm32f7xx_ll_dma.h ****   * @brief  Read a value in DMA register
 400:Drivers/STM32F7xx_HAL_Driver/Inc/stm32f7xx_ll_dma.h ****   * @param  __INSTANCE__ DMA Instance
 401:Drivers/STM32F7xx_HAL_Driver/Inc/stm32f7xx_ll_dma.h ****   * @param  __REG__ Register to be read
 402:Drivers/STM32F7xx_HAL_Driver/Inc/stm32f7xx_ll_dma.h ****   * @retval Register value
 403:Drivers/STM32F7xx_HAL_Driver/Inc/stm32f7xx_ll_dma.h ****   */
 404:Drivers/STM32F7xx_HAL_Driver/Inc/stm32f7xx_ll_dma.h **** #define LL_DMA_ReadReg(__INSTANCE__, __REG__) READ_REG(__INSTANCE__->__REG__)
 405:Drivers/STM32F7xx_HAL_Driver/Inc/stm32f7xx_ll_dma.h **** /**
 406:Drivers/STM32F7xx_HAL_Driver/Inc/stm32f7xx_ll_dma.h ****   * @}
 407:Drivers/STM32F7xx_HAL_Driver/Inc/stm32f7xx_ll_dma.h ****   */
 408:Drivers/STM32F7xx_HAL_Driver/Inc/stm32f7xx_ll_dma.h **** 
 409:Drivers/STM32F7xx_HAL_Driver/Inc/stm32f7xx_ll_dma.h **** /** @defgroup DMA_LL_EM_CONVERT_DMAxCHANNELy Convert DMAxStreamy
 410:Drivers/STM32F7xx_HAL_Driver/Inc/stm32f7xx_ll_dma.h ****   * @{
 411:Drivers/STM32F7xx_HAL_Driver/Inc/stm32f7xx_ll_dma.h ****   */
 412:Drivers/STM32F7xx_HAL_Driver/Inc/stm32f7xx_ll_dma.h **** /**
 413:Drivers/STM32F7xx_HAL_Driver/Inc/stm32f7xx_ll_dma.h ****   * @brief  Convert DMAx_Streamy into DMAx
 414:Drivers/STM32F7xx_HAL_Driver/Inc/stm32f7xx_ll_dma.h ****   * @param  __STREAM_INSTANCE__ DMAx_Streamy
 415:Drivers/STM32F7xx_HAL_Driver/Inc/stm32f7xx_ll_dma.h ****   * @retval DMAx
 416:Drivers/STM32F7xx_HAL_Driver/Inc/stm32f7xx_ll_dma.h ****   */
 417:Drivers/STM32F7xx_HAL_Driver/Inc/stm32f7xx_ll_dma.h **** #define __LL_DMA_GET_INSTANCE(__STREAM_INSTANCE__)   \
 418:Drivers/STM32F7xx_HAL_Driver/Inc/stm32f7xx_ll_dma.h **** (((uint32_t)(__STREAM_INSTANCE__) > ((uint32_t)DMA1_Stream7)) ?  DMA2 : DMA1)
 419:Drivers/STM32F7xx_HAL_Driver/Inc/stm32f7xx_ll_dma.h **** 
 420:Drivers/STM32F7xx_HAL_Driver/Inc/stm32f7xx_ll_dma.h **** /**
 421:Drivers/STM32F7xx_HAL_Driver/Inc/stm32f7xx_ll_dma.h ****   * @brief  Convert DMAx_Streamy into LL_DMA_STREAM_y
 422:Drivers/STM32F7xx_HAL_Driver/Inc/stm32f7xx_ll_dma.h ****   * @param  __STREAM_INSTANCE__ DMAx_Streamy
 423:Drivers/STM32F7xx_HAL_Driver/Inc/stm32f7xx_ll_dma.h ****   * @retval LL_DMA_CHANNEL_y
ARM GAS  C:\Users\Giorgio\AppData\Local\Temp\ccg7jKJX.s 			page 13


 424:Drivers/STM32F7xx_HAL_Driver/Inc/stm32f7xx_ll_dma.h ****   */
 425:Drivers/STM32F7xx_HAL_Driver/Inc/stm32f7xx_ll_dma.h **** #define __LL_DMA_GET_STREAM(__STREAM_INSTANCE__)   \
 426:Drivers/STM32F7xx_HAL_Driver/Inc/stm32f7xx_ll_dma.h **** (((uint32_t)(__STREAM_INSTANCE__) == ((uint32_t)DMA1_Stream0)) ? LL_DMA_STREAM_0 : \
 427:Drivers/STM32F7xx_HAL_Driver/Inc/stm32f7xx_ll_dma.h ****  ((uint32_t)(__STREAM_INSTANCE__) == ((uint32_t)DMA2_Stream0)) ? LL_DMA_STREAM_0 : \
 428:Drivers/STM32F7xx_HAL_Driver/Inc/stm32f7xx_ll_dma.h ****  ((uint32_t)(__STREAM_INSTANCE__) == ((uint32_t)DMA1_Stream1)) ? LL_DMA_STREAM_1 : \
 429:Drivers/STM32F7xx_HAL_Driver/Inc/stm32f7xx_ll_dma.h ****  ((uint32_t)(__STREAM_INSTANCE__) == ((uint32_t)DMA2_Stream1)) ? LL_DMA_STREAM_1 : \
 430:Drivers/STM32F7xx_HAL_Driver/Inc/stm32f7xx_ll_dma.h ****  ((uint32_t)(__STREAM_INSTANCE__) == ((uint32_t)DMA1_Stream2)) ? LL_DMA_STREAM_2 : \
 431:Drivers/STM32F7xx_HAL_Driver/Inc/stm32f7xx_ll_dma.h ****  ((uint32_t)(__STREAM_INSTANCE__) == ((uint32_t)DMA2_Stream2)) ? LL_DMA_STREAM_2 : \
 432:Drivers/STM32F7xx_HAL_Driver/Inc/stm32f7xx_ll_dma.h ****  ((uint32_t)(__STREAM_INSTANCE__) == ((uint32_t)DMA1_Stream3)) ? LL_DMA_STREAM_3 : \
 433:Drivers/STM32F7xx_HAL_Driver/Inc/stm32f7xx_ll_dma.h ****  ((uint32_t)(__STREAM_INSTANCE__) == ((uint32_t)DMA2_Stream3)) ? LL_DMA_STREAM_3 : \
 434:Drivers/STM32F7xx_HAL_Driver/Inc/stm32f7xx_ll_dma.h ****  ((uint32_t)(__STREAM_INSTANCE__) == ((uint32_t)DMA1_Stream4)) ? LL_DMA_STREAM_4 : \
 435:Drivers/STM32F7xx_HAL_Driver/Inc/stm32f7xx_ll_dma.h ****  ((uint32_t)(__STREAM_INSTANCE__) == ((uint32_t)DMA2_Stream4)) ? LL_DMA_STREAM_4 : \
 436:Drivers/STM32F7xx_HAL_Driver/Inc/stm32f7xx_ll_dma.h ****  ((uint32_t)(__STREAM_INSTANCE__) == ((uint32_t)DMA1_Stream5)) ? LL_DMA_STREAM_5 : \
 437:Drivers/STM32F7xx_HAL_Driver/Inc/stm32f7xx_ll_dma.h ****  ((uint32_t)(__STREAM_INSTANCE__) == ((uint32_t)DMA2_Stream5)) ? LL_DMA_STREAM_5 : \
 438:Drivers/STM32F7xx_HAL_Driver/Inc/stm32f7xx_ll_dma.h ****  ((uint32_t)(__STREAM_INSTANCE__) == ((uint32_t)DMA1_Stream6)) ? LL_DMA_STREAM_6 : \
 439:Drivers/STM32F7xx_HAL_Driver/Inc/stm32f7xx_ll_dma.h ****  ((uint32_t)(__STREAM_INSTANCE__) == ((uint32_t)DMA2_Stream6)) ? LL_DMA_STREAM_6 : \
 440:Drivers/STM32F7xx_HAL_Driver/Inc/stm32f7xx_ll_dma.h ****  LL_DMA_STREAM_7)
 441:Drivers/STM32F7xx_HAL_Driver/Inc/stm32f7xx_ll_dma.h **** 
 442:Drivers/STM32F7xx_HAL_Driver/Inc/stm32f7xx_ll_dma.h **** /**
 443:Drivers/STM32F7xx_HAL_Driver/Inc/stm32f7xx_ll_dma.h ****   * @brief  Convert DMA Instance DMAx and LL_DMA_STREAM_y into DMAx_Streamy
 444:Drivers/STM32F7xx_HAL_Driver/Inc/stm32f7xx_ll_dma.h ****   * @param  __DMA_INSTANCE__ DMAx
 445:Drivers/STM32F7xx_HAL_Driver/Inc/stm32f7xx_ll_dma.h ****   * @param  __STREAM__ LL_DMA_STREAM_y
 446:Drivers/STM32F7xx_HAL_Driver/Inc/stm32f7xx_ll_dma.h ****   * @retval DMAx_Streamy
 447:Drivers/STM32F7xx_HAL_Driver/Inc/stm32f7xx_ll_dma.h ****   */
 448:Drivers/STM32F7xx_HAL_Driver/Inc/stm32f7xx_ll_dma.h **** #define __LL_DMA_GET_STREAM_INSTANCE(__DMA_INSTANCE__, __STREAM__)   \
 449:Drivers/STM32F7xx_HAL_Driver/Inc/stm32f7xx_ll_dma.h **** ((((uint32_t)(__DMA_INSTANCE__) == ((uint32_t)DMA1)) && ((uint32_t)(__STREAM__) == ((uint32_t)LL_DM
 450:Drivers/STM32F7xx_HAL_Driver/Inc/stm32f7xx_ll_dma.h ****  (((uint32_t)(__DMA_INSTANCE__) == ((uint32_t)DMA2)) && ((uint32_t)(__STREAM__) == ((uint32_t)LL_DM
 451:Drivers/STM32F7xx_HAL_Driver/Inc/stm32f7xx_ll_dma.h ****  (((uint32_t)(__DMA_INSTANCE__) == ((uint32_t)DMA1)) && ((uint32_t)(__STREAM__) == ((uint32_t)LL_DM
 452:Drivers/STM32F7xx_HAL_Driver/Inc/stm32f7xx_ll_dma.h ****  (((uint32_t)(__DMA_INSTANCE__) == ((uint32_t)DMA2)) && ((uint32_t)(__STREAM__) == ((uint32_t)LL_DM
 453:Drivers/STM32F7xx_HAL_Driver/Inc/stm32f7xx_ll_dma.h ****  (((uint32_t)(__DMA_INSTANCE__) == ((uint32_t)DMA1)) && ((uint32_t)(__STREAM__) == ((uint32_t)LL_DM
 454:Drivers/STM32F7xx_HAL_Driver/Inc/stm32f7xx_ll_dma.h ****  (((uint32_t)(__DMA_INSTANCE__) == ((uint32_t)DMA2)) && ((uint32_t)(__STREAM__) == ((uint32_t)LL_DM
 455:Drivers/STM32F7xx_HAL_Driver/Inc/stm32f7xx_ll_dma.h ****  (((uint32_t)(__DMA_INSTANCE__) == ((uint32_t)DMA1)) && ((uint32_t)(__STREAM__) == ((uint32_t)LL_DM
 456:Drivers/STM32F7xx_HAL_Driver/Inc/stm32f7xx_ll_dma.h ****  (((uint32_t)(__DMA_INSTANCE__) == ((uint32_t)DMA2)) && ((uint32_t)(__STREAM__) == ((uint32_t)LL_DM
 457:Drivers/STM32F7xx_HAL_Driver/Inc/stm32f7xx_ll_dma.h ****  (((uint32_t)(__DMA_INSTANCE__) == ((uint32_t)DMA1)) && ((uint32_t)(__STREAM__) == ((uint32_t)LL_DM
 458:Drivers/STM32F7xx_HAL_Driver/Inc/stm32f7xx_ll_dma.h ****  (((uint32_t)(__DMA_INSTANCE__) == ((uint32_t)DMA2)) && ((uint32_t)(__STREAM__) == ((uint32_t)LL_DM
 459:Drivers/STM32F7xx_HAL_Driver/Inc/stm32f7xx_ll_dma.h ****  (((uint32_t)(__DMA_INSTANCE__) == ((uint32_t)DMA1)) && ((uint32_t)(__STREAM__) == ((uint32_t)LL_DM
 460:Drivers/STM32F7xx_HAL_Driver/Inc/stm32f7xx_ll_dma.h ****  (((uint32_t)(__DMA_INSTANCE__) == ((uint32_t)DMA2)) && ((uint32_t)(__STREAM__) == ((uint32_t)LL_DM
 461:Drivers/STM32F7xx_HAL_Driver/Inc/stm32f7xx_ll_dma.h ****  (((uint32_t)(__DMA_INSTANCE__) == ((uint32_t)DMA1)) && ((uint32_t)(__STREAM__) == ((uint32_t)LL_DM
 462:Drivers/STM32F7xx_HAL_Driver/Inc/stm32f7xx_ll_dma.h ****  (((uint32_t)(__DMA_INSTANCE__) == ((uint32_t)DMA2)) && ((uint32_t)(__STREAM__) == ((uint32_t)LL_DM
 463:Drivers/STM32F7xx_HAL_Driver/Inc/stm32f7xx_ll_dma.h ****  (((uint32_t)(__DMA_INSTANCE__) == ((uint32_t)DMA1)) && ((uint32_t)(__STREAM__) == ((uint32_t)LL_DM
 464:Drivers/STM32F7xx_HAL_Driver/Inc/stm32f7xx_ll_dma.h ****  DMA2_Stream7)
 465:Drivers/STM32F7xx_HAL_Driver/Inc/stm32f7xx_ll_dma.h **** 
 466:Drivers/STM32F7xx_HAL_Driver/Inc/stm32f7xx_ll_dma.h **** /**
 467:Drivers/STM32F7xx_HAL_Driver/Inc/stm32f7xx_ll_dma.h ****   * @}
 468:Drivers/STM32F7xx_HAL_Driver/Inc/stm32f7xx_ll_dma.h ****   */
 469:Drivers/STM32F7xx_HAL_Driver/Inc/stm32f7xx_ll_dma.h **** 
 470:Drivers/STM32F7xx_HAL_Driver/Inc/stm32f7xx_ll_dma.h **** /**
 471:Drivers/STM32F7xx_HAL_Driver/Inc/stm32f7xx_ll_dma.h ****   * @}
 472:Drivers/STM32F7xx_HAL_Driver/Inc/stm32f7xx_ll_dma.h ****   */
 473:Drivers/STM32F7xx_HAL_Driver/Inc/stm32f7xx_ll_dma.h **** 
 474:Drivers/STM32F7xx_HAL_Driver/Inc/stm32f7xx_ll_dma.h **** 
 475:Drivers/STM32F7xx_HAL_Driver/Inc/stm32f7xx_ll_dma.h **** /* Exported functions --------------------------------------------------------*/
 476:Drivers/STM32F7xx_HAL_Driver/Inc/stm32f7xx_ll_dma.h ****  /** @defgroup DMA_LL_Exported_Functions DMA Exported Functions
 477:Drivers/STM32F7xx_HAL_Driver/Inc/stm32f7xx_ll_dma.h ****   * @{
 478:Drivers/STM32F7xx_HAL_Driver/Inc/stm32f7xx_ll_dma.h ****   */
 479:Drivers/STM32F7xx_HAL_Driver/Inc/stm32f7xx_ll_dma.h **** 
 480:Drivers/STM32F7xx_HAL_Driver/Inc/stm32f7xx_ll_dma.h **** /** @defgroup DMA_LL_EF_Configuration Configuration
ARM GAS  C:\Users\Giorgio\AppData\Local\Temp\ccg7jKJX.s 			page 14


 481:Drivers/STM32F7xx_HAL_Driver/Inc/stm32f7xx_ll_dma.h ****   * @{
 482:Drivers/STM32F7xx_HAL_Driver/Inc/stm32f7xx_ll_dma.h ****   */
 483:Drivers/STM32F7xx_HAL_Driver/Inc/stm32f7xx_ll_dma.h **** /**
 484:Drivers/STM32F7xx_HAL_Driver/Inc/stm32f7xx_ll_dma.h ****   * @brief Enable DMA stream.
 485:Drivers/STM32F7xx_HAL_Driver/Inc/stm32f7xx_ll_dma.h ****   * @rmtoll CR          EN            LL_DMA_EnableStream
 486:Drivers/STM32F7xx_HAL_Driver/Inc/stm32f7xx_ll_dma.h ****   * @param  DMAx DMAx Instance
 487:Drivers/STM32F7xx_HAL_Driver/Inc/stm32f7xx_ll_dma.h ****   * @param  Stream This parameter can be one of the following values:
 488:Drivers/STM32F7xx_HAL_Driver/Inc/stm32f7xx_ll_dma.h ****   *         @arg @ref LL_DMA_STREAM_0
 489:Drivers/STM32F7xx_HAL_Driver/Inc/stm32f7xx_ll_dma.h ****   *         @arg @ref LL_DMA_STREAM_1
 490:Drivers/STM32F7xx_HAL_Driver/Inc/stm32f7xx_ll_dma.h ****   *         @arg @ref LL_DMA_STREAM_2
 491:Drivers/STM32F7xx_HAL_Driver/Inc/stm32f7xx_ll_dma.h ****   *         @arg @ref LL_DMA_STREAM_3
 492:Drivers/STM32F7xx_HAL_Driver/Inc/stm32f7xx_ll_dma.h ****   *         @arg @ref LL_DMA_STREAM_4
 493:Drivers/STM32F7xx_HAL_Driver/Inc/stm32f7xx_ll_dma.h ****   *         @arg @ref LL_DMA_STREAM_5
 494:Drivers/STM32F7xx_HAL_Driver/Inc/stm32f7xx_ll_dma.h ****   *         @arg @ref LL_DMA_STREAM_6
 495:Drivers/STM32F7xx_HAL_Driver/Inc/stm32f7xx_ll_dma.h ****   *         @arg @ref LL_DMA_STREAM_7
 496:Drivers/STM32F7xx_HAL_Driver/Inc/stm32f7xx_ll_dma.h ****   * @retval None
 497:Drivers/STM32F7xx_HAL_Driver/Inc/stm32f7xx_ll_dma.h ****   */
 498:Drivers/STM32F7xx_HAL_Driver/Inc/stm32f7xx_ll_dma.h **** __STATIC_INLINE void LL_DMA_EnableStream(DMA_TypeDef *DMAx, uint32_t Stream)
 499:Drivers/STM32F7xx_HAL_Driver/Inc/stm32f7xx_ll_dma.h **** {
 500:Drivers/STM32F7xx_HAL_Driver/Inc/stm32f7xx_ll_dma.h ****   SET_BIT(((DMA_Stream_TypeDef *)((uint32_t)((uint32_t)DMAx + STREAM_OFFSET_TAB[Stream])))->CR, DMA
 501:Drivers/STM32F7xx_HAL_Driver/Inc/stm32f7xx_ll_dma.h **** }
 502:Drivers/STM32F7xx_HAL_Driver/Inc/stm32f7xx_ll_dma.h **** 
 503:Drivers/STM32F7xx_HAL_Driver/Inc/stm32f7xx_ll_dma.h **** /**
 504:Drivers/STM32F7xx_HAL_Driver/Inc/stm32f7xx_ll_dma.h ****   * @brief Disable DMA stream.
 505:Drivers/STM32F7xx_HAL_Driver/Inc/stm32f7xx_ll_dma.h ****   * @rmtoll CR          EN            LL_DMA_DisableStream
 506:Drivers/STM32F7xx_HAL_Driver/Inc/stm32f7xx_ll_dma.h ****   * @param  DMAx DMAx Instance
 507:Drivers/STM32F7xx_HAL_Driver/Inc/stm32f7xx_ll_dma.h ****   * @param  Stream This parameter can be one of the following values:
 508:Drivers/STM32F7xx_HAL_Driver/Inc/stm32f7xx_ll_dma.h ****   *         @arg @ref LL_DMA_STREAM_0
 509:Drivers/STM32F7xx_HAL_Driver/Inc/stm32f7xx_ll_dma.h ****   *         @arg @ref LL_DMA_STREAM_1
 510:Drivers/STM32F7xx_HAL_Driver/Inc/stm32f7xx_ll_dma.h ****   *         @arg @ref LL_DMA_STREAM_2
 511:Drivers/STM32F7xx_HAL_Driver/Inc/stm32f7xx_ll_dma.h ****   *         @arg @ref LL_DMA_STREAM_3
 512:Drivers/STM32F7xx_HAL_Driver/Inc/stm32f7xx_ll_dma.h ****   *         @arg @ref LL_DMA_STREAM_4
 513:Drivers/STM32F7xx_HAL_Driver/Inc/stm32f7xx_ll_dma.h ****   *         @arg @ref LL_DMA_STREAM_5
 514:Drivers/STM32F7xx_HAL_Driver/Inc/stm32f7xx_ll_dma.h ****   *         @arg @ref LL_DMA_STREAM_6
 515:Drivers/STM32F7xx_HAL_Driver/Inc/stm32f7xx_ll_dma.h ****   *         @arg @ref LL_DMA_STREAM_7
 516:Drivers/STM32F7xx_HAL_Driver/Inc/stm32f7xx_ll_dma.h ****   * @retval None
 517:Drivers/STM32F7xx_HAL_Driver/Inc/stm32f7xx_ll_dma.h ****   */
 518:Drivers/STM32F7xx_HAL_Driver/Inc/stm32f7xx_ll_dma.h **** __STATIC_INLINE void LL_DMA_DisableStream(DMA_TypeDef *DMAx, uint32_t Stream)
  51              		.loc 2 518 22 view .LVU8
  52              	.LBB31:
 519:Drivers/STM32F7xx_HAL_Driver/Inc/stm32f7xx_ll_dma.h **** {
 520:Drivers/STM32F7xx_HAL_Driver/Inc/stm32f7xx_ll_dma.h ****   CLEAR_BIT(((DMA_Stream_TypeDef *)((uint32_t)((uint32_t)DMAx + STREAM_OFFSET_TAB[Stream])))->CR, D
  53              		.loc 2 520 3 view .LVU9
  54 0008 6C4B     		ldr	r3, .L43
  55 000a 13F801C0 		ldrb	ip, [r3, r1]	@ zero_extendqisi2
  56 000e 50F80C30 		ldr	r3, [r0, ip]
  57 0012 23F00103 		bic	r3, r3, #1
  58 0016 40F80C30 		str	r3, [r0, ip]
  59              	.LVL2:
  60              		.loc 2 520 3 is_stmt 0 view .LVU10
  61              	.LBE31:
  62              	.LBE30:
 212:Drivers/STM32F7xx_HAL_Driver/Src/stm32f7xx_ll_dma.c **** 
 213:Drivers/STM32F7xx_HAL_Driver/Src/stm32f7xx_ll_dma.c ****     /* Get the DMA Stream Instance */
 214:Drivers/STM32F7xx_HAL_Driver/Src/stm32f7xx_ll_dma.c ****     tmp = (DMA_Stream_TypeDef *)(__LL_DMA_GET_STREAM_INSTANCE(DMAx, Stream));
  63              		.loc 1 214 5 is_stmt 1 view .LVU11
  64              		.loc 1 214 34 is_stmt 0 view .LVU12
ARM GAS  C:\Users\Giorgio\AppData\Local\Temp\ccg7jKJX.s 			page 15


  65 001a 694B     		ldr	r3, .L43+4
  66 001c C31A     		subs	r3, r0, r3
  67 001e 18BF     		it	ne
  68 0020 0123     		movne	r3, #1
  69 0022 0A1E     		subs	r2, r1, #0
  70 0024 18BF     		it	ne
  71 0026 0122     		movne	r2, #1
  72              		.loc 1 214 11 view .LVU13
  73 0028 53EA0204 		orrs	r4, r3, r2
  74 002c 64D0     		beq	.L14
  75              		.loc 1 214 34 discriminator 1 view .LVU14
  76 002e 654C     		ldr	r4, .L43+8
  77 0030 B0EB040E 		subs	lr, r0, r4
  78 0034 18BF     		it	ne
  79 0036 4FF0010E 		movne	lr, #1
  80 003a 52EA0E02 		orrs	r2, r2, lr
  81 003e 6FD0     		beq	.L15
  82              		.loc 1 214 34 discriminator 3 view .LVU15
  83 0040 4A1E     		subs	r2, r1, #1
  84 0042 18BF     		it	ne
  85 0044 0122     		movne	r2, #1
  86 0046 53EA0204 		orrs	r4, r3, r2
  87 004a 6BD0     		beq	.L16
  88              		.loc 1 214 34 discriminator 5 view .LVU16
  89 004c 5EEA0202 		orrs	r2, lr, r2
  90 0050 6AD0     		beq	.L17
  91              		.loc 1 214 34 discriminator 7 view .LVU17
  92 0052 8A1E     		subs	r2, r1, #2
  93 0054 18BF     		it	ne
  94 0056 0122     		movne	r2, #1
  95 0058 53EA0204 		orrs	r4, r3, r2
  96 005c 66D0     		beq	.L18
  97              		.loc 1 214 34 discriminator 9 view .LVU18
  98 005e 5EEA0202 		orrs	r2, lr, r2
  99 0062 65D0     		beq	.L19
 100              		.loc 1 214 34 discriminator 11 view .LVU19
 101 0064 CA1E     		subs	r2, r1, #3
 102 0066 18BF     		it	ne
 103 0068 0122     		movne	r2, #1
 104 006a 53EA0204 		orrs	r4, r3, r2
 105 006e 61D0     		beq	.L20
 106              		.loc 1 214 34 discriminator 13 view .LVU20
 107 0070 5EEA0202 		orrs	r2, lr, r2
 108 0074 60D0     		beq	.L21
 109              		.loc 1 214 34 discriminator 15 view .LVU21
 110 0076 0A1F     		subs	r2, r1, #4
 111 0078 18BF     		it	ne
 112 007a 0122     		movne	r2, #1
 113 007c 53EA0204 		orrs	r4, r3, r2
 114 0080 5CD0     		beq	.L22
 115              		.loc 1 214 34 discriminator 17 view .LVU22
 116 0082 5EEA0202 		orrs	r2, lr, r2
 117 0086 5BD0     		beq	.L23
 118              		.loc 1 214 34 discriminator 19 view .LVU23
 119 0088 4A1F     		subs	r2, r1, #5
 120 008a 18BF     		it	ne
 121 008c 0122     		movne	r2, #1
ARM GAS  C:\Users\Giorgio\AppData\Local\Temp\ccg7jKJX.s 			page 16


 122 008e 53EA0204 		orrs	r4, r3, r2
 123 0092 57D0     		beq	.L24
 124              		.loc 1 214 34 discriminator 21 view .LVU24
 125 0094 5EEA0202 		orrs	r2, lr, r2
 126 0098 56D0     		beq	.L25
 127              		.loc 1 214 34 discriminator 23 view .LVU25
 128 009a 8A1F     		subs	r2, r1, #6
 129 009c 18BF     		it	ne
 130 009e 0122     		movne	r2, #1
 131 00a0 1343     		orrs	r3, r3, r2
 132 00a2 53D0     		beq	.L26
 133              		.loc 1 214 34 discriminator 25 view .LVU26
 134 00a4 5EEA0203 		orrs	r3, lr, r2
 135 00a8 52D0     		beq	.L27
 136              		.loc 1 214 34 discriminator 27 view .LVU27
 137 00aa 454B     		ldr	r3, .L43+4
 138 00ac 9842     		cmp	r0, r3
 139 00ae 08BF     		it	eq
 140 00b0 0729     		cmpeq	r1, #7
 141 00b2 4FD1     		bne	.L28
 142              		.loc 1 214 34 view .LVU28
 143 00b4 B833     		adds	r3, r3, #184
 144 00b6 20E0     		b	.L5
 145              	.L33:
 146              	.LCFI1:
 147              		.cfi_def_cfa_offset 0
 148              		.cfi_restore 4
 149              		.cfi_restore 14
 187:Drivers/STM32F7xx_HAL_Driver/Src/stm32f7xx_ll_dma.c ****     {
 150              		.loc 1 187 5 is_stmt 1 view .LVU29
 187:Drivers/STM32F7xx_HAL_Driver/Src/stm32f7xx_ll_dma.c ****     {
 151              		.loc 1 187 8 is_stmt 0 view .LVU30
 152 00b8 414B     		ldr	r3, .L43+4
 153 00ba 9842     		cmp	r0, r3
 154 00bc 04D0     		beq	.L34
 195:Drivers/STM32F7xx_HAL_Driver/Src/stm32f7xx_ll_dma.c ****     {
 155              		.loc 1 195 10 is_stmt 1 view .LVU31
 195:Drivers/STM32F7xx_HAL_Driver/Src/stm32f7xx_ll_dma.c ****     {
 156              		.loc 1 195 13 is_stmt 0 view .LVU32
 157 00be 414B     		ldr	r3, .L43+8
 158 00c0 9842     		cmp	r0, r3
 159 00c2 0DD0     		beq	.L35
 205:Drivers/STM32F7xx_HAL_Driver/Src/stm32f7xx_ll_dma.c ****     }
 160              		.loc 1 205 14 view .LVU33
 161 00c4 0120     		movs	r0, #1
 162              	.LVL3:
 215:Drivers/STM32F7xx_HAL_Driver/Src/stm32f7xx_ll_dma.c **** 
 216:Drivers/STM32F7xx_HAL_Driver/Src/stm32f7xx_ll_dma.c ****     /* Reset DMAx_Streamy configuration register */
 217:Drivers/STM32F7xx_HAL_Driver/Src/stm32f7xx_ll_dma.c ****     LL_DMA_WriteReg(tmp, CR, 0U);
 218:Drivers/STM32F7xx_HAL_Driver/Src/stm32f7xx_ll_dma.c **** 
 219:Drivers/STM32F7xx_HAL_Driver/Src/stm32f7xx_ll_dma.c ****     /* Reset DMAx_Streamy remaining bytes register */
 220:Drivers/STM32F7xx_HAL_Driver/Src/stm32f7xx_ll_dma.c ****     LL_DMA_WriteReg(tmp, NDTR, 0U);
 221:Drivers/STM32F7xx_HAL_Driver/Src/stm32f7xx_ll_dma.c **** 
 222:Drivers/STM32F7xx_HAL_Driver/Src/stm32f7xx_ll_dma.c ****     /* Reset DMAx_Streamy peripheral address register */
 223:Drivers/STM32F7xx_HAL_Driver/Src/stm32f7xx_ll_dma.c ****     LL_DMA_WriteReg(tmp, PAR, 0U);
 224:Drivers/STM32F7xx_HAL_Driver/Src/stm32f7xx_ll_dma.c **** 
 225:Drivers/STM32F7xx_HAL_Driver/Src/stm32f7xx_ll_dma.c ****     /* Reset DMAx_Streamy memory address register */
ARM GAS  C:\Users\Giorgio\AppData\Local\Temp\ccg7jKJX.s 			page 17


 226:Drivers/STM32F7xx_HAL_Driver/Src/stm32f7xx_ll_dma.c ****     LL_DMA_WriteReg(tmp, M0AR, 0U);
 227:Drivers/STM32F7xx_HAL_Driver/Src/stm32f7xx_ll_dma.c **** 
 228:Drivers/STM32F7xx_HAL_Driver/Src/stm32f7xx_ll_dma.c ****     /* Reset DMAx_Streamy memory address register */
 229:Drivers/STM32F7xx_HAL_Driver/Src/stm32f7xx_ll_dma.c ****     LL_DMA_WriteReg(tmp, M1AR, 0U);
 230:Drivers/STM32F7xx_HAL_Driver/Src/stm32f7xx_ll_dma.c **** 
 231:Drivers/STM32F7xx_HAL_Driver/Src/stm32f7xx_ll_dma.c ****     /* Reset DMAx_Streamy FIFO control register */
 232:Drivers/STM32F7xx_HAL_Driver/Src/stm32f7xx_ll_dma.c ****     LL_DMA_WriteReg(tmp, FCR, 0x00000021U);
 233:Drivers/STM32F7xx_HAL_Driver/Src/stm32f7xx_ll_dma.c **** 
 234:Drivers/STM32F7xx_HAL_Driver/Src/stm32f7xx_ll_dma.c ****     /* Reset Channel register field for DMAx Stream*/
 235:Drivers/STM32F7xx_HAL_Driver/Src/stm32f7xx_ll_dma.c ****     LL_DMA_SetChannelSelection(DMAx, Stream, LL_DMA_CHANNEL_0);
 236:Drivers/STM32F7xx_HAL_Driver/Src/stm32f7xx_ll_dma.c **** 
 237:Drivers/STM32F7xx_HAL_Driver/Src/stm32f7xx_ll_dma.c ****     if(Stream == LL_DMA_STREAM_0)
 238:Drivers/STM32F7xx_HAL_Driver/Src/stm32f7xx_ll_dma.c ****     {
 239:Drivers/STM32F7xx_HAL_Driver/Src/stm32f7xx_ll_dma.c ****        /* Reset the Stream0 pending flags */
 240:Drivers/STM32F7xx_HAL_Driver/Src/stm32f7xx_ll_dma.c ****        DMAx->LIFCR = 0x0000003FU;
 241:Drivers/STM32F7xx_HAL_Driver/Src/stm32f7xx_ll_dma.c ****     }
 242:Drivers/STM32F7xx_HAL_Driver/Src/stm32f7xx_ll_dma.c ****     else if(Stream == LL_DMA_STREAM_1)
 243:Drivers/STM32F7xx_HAL_Driver/Src/stm32f7xx_ll_dma.c ****     {
 244:Drivers/STM32F7xx_HAL_Driver/Src/stm32f7xx_ll_dma.c ****        /* Reset the Stream1 pending flags */
 245:Drivers/STM32F7xx_HAL_Driver/Src/stm32f7xx_ll_dma.c ****        DMAx->LIFCR = 0x00000F40U;
 246:Drivers/STM32F7xx_HAL_Driver/Src/stm32f7xx_ll_dma.c ****     }
 247:Drivers/STM32F7xx_HAL_Driver/Src/stm32f7xx_ll_dma.c ****     else if(Stream == LL_DMA_STREAM_2)
 248:Drivers/STM32F7xx_HAL_Driver/Src/stm32f7xx_ll_dma.c ****     {
 249:Drivers/STM32F7xx_HAL_Driver/Src/stm32f7xx_ll_dma.c ****        /* Reset the Stream2 pending flags */
 250:Drivers/STM32F7xx_HAL_Driver/Src/stm32f7xx_ll_dma.c ****        DMAx->LIFCR = 0x003F0000U;
 251:Drivers/STM32F7xx_HAL_Driver/Src/stm32f7xx_ll_dma.c ****     }
 252:Drivers/STM32F7xx_HAL_Driver/Src/stm32f7xx_ll_dma.c ****     else if(Stream == LL_DMA_STREAM_3)
 253:Drivers/STM32F7xx_HAL_Driver/Src/stm32f7xx_ll_dma.c ****     {
 254:Drivers/STM32F7xx_HAL_Driver/Src/stm32f7xx_ll_dma.c ****        /* Reset the Stream3 pending flags */
 255:Drivers/STM32F7xx_HAL_Driver/Src/stm32f7xx_ll_dma.c ****        DMAx->LIFCR = 0x0F400000U;
 256:Drivers/STM32F7xx_HAL_Driver/Src/stm32f7xx_ll_dma.c ****     }
 257:Drivers/STM32F7xx_HAL_Driver/Src/stm32f7xx_ll_dma.c ****     else if(Stream == LL_DMA_STREAM_4)
 258:Drivers/STM32F7xx_HAL_Driver/Src/stm32f7xx_ll_dma.c ****     {
 259:Drivers/STM32F7xx_HAL_Driver/Src/stm32f7xx_ll_dma.c ****        /* Reset the Stream4 pending flags */
 260:Drivers/STM32F7xx_HAL_Driver/Src/stm32f7xx_ll_dma.c ****        DMAx->HIFCR = 0x0000003FU;
 261:Drivers/STM32F7xx_HAL_Driver/Src/stm32f7xx_ll_dma.c ****     }
 262:Drivers/STM32F7xx_HAL_Driver/Src/stm32f7xx_ll_dma.c ****     else if(Stream == LL_DMA_STREAM_5)
 263:Drivers/STM32F7xx_HAL_Driver/Src/stm32f7xx_ll_dma.c ****     {
 264:Drivers/STM32F7xx_HAL_Driver/Src/stm32f7xx_ll_dma.c ****        /* Reset the Stream5 pending flags */
 265:Drivers/STM32F7xx_HAL_Driver/Src/stm32f7xx_ll_dma.c ****        DMAx->HIFCR = 0x00000F40U;
 266:Drivers/STM32F7xx_HAL_Driver/Src/stm32f7xx_ll_dma.c ****     }
 267:Drivers/STM32F7xx_HAL_Driver/Src/stm32f7xx_ll_dma.c ****     else if(Stream == LL_DMA_STREAM_6)
 268:Drivers/STM32F7xx_HAL_Driver/Src/stm32f7xx_ll_dma.c ****     {
 269:Drivers/STM32F7xx_HAL_Driver/Src/stm32f7xx_ll_dma.c ****        /* Reset the Stream6 pending flags */
 270:Drivers/STM32F7xx_HAL_Driver/Src/stm32f7xx_ll_dma.c ****        DMAx->HIFCR = 0x003F0000U;
 271:Drivers/STM32F7xx_HAL_Driver/Src/stm32f7xx_ll_dma.c ****     }
 272:Drivers/STM32F7xx_HAL_Driver/Src/stm32f7xx_ll_dma.c ****     else if(Stream == LL_DMA_STREAM_7)
 273:Drivers/STM32F7xx_HAL_Driver/Src/stm32f7xx_ll_dma.c ****     {
 274:Drivers/STM32F7xx_HAL_Driver/Src/stm32f7xx_ll_dma.c ****        /* Reset the Stream7 pending flags */
 275:Drivers/STM32F7xx_HAL_Driver/Src/stm32f7xx_ll_dma.c ****        DMAx->HIFCR = 0x0F400000U;
 276:Drivers/STM32F7xx_HAL_Driver/Src/stm32f7xx_ll_dma.c ****     }
 277:Drivers/STM32F7xx_HAL_Driver/Src/stm32f7xx_ll_dma.c ****     else
 278:Drivers/STM32F7xx_HAL_Driver/Src/stm32f7xx_ll_dma.c ****     {
 279:Drivers/STM32F7xx_HAL_Driver/Src/stm32f7xx_ll_dma.c ****       status = ERROR;
 280:Drivers/STM32F7xx_HAL_Driver/Src/stm32f7xx_ll_dma.c ****     }
 281:Drivers/STM32F7xx_HAL_Driver/Src/stm32f7xx_ll_dma.c ****   }
 282:Drivers/STM32F7xx_HAL_Driver/Src/stm32f7xx_ll_dma.c **** 
ARM GAS  C:\Users\Giorgio\AppData\Local\Temp\ccg7jKJX.s 			page 18


 283:Drivers/STM32F7xx_HAL_Driver/Src/stm32f7xx_ll_dma.c ****   return status;
 163              		.loc 1 283 3 is_stmt 1 view .LVU34
 284:Drivers/STM32F7xx_HAL_Driver/Src/stm32f7xx_ll_dma.c **** }
 164              		.loc 1 284 1 is_stmt 0 view .LVU35
 165 00c6 7047     		bx	lr
 166              	.LVL4:
 167              	.L34:
 190:Drivers/STM32F7xx_HAL_Driver/Src/stm32f7xx_ll_dma.c **** 
 168              		.loc 1 190 7 is_stmt 1 view .LVU36
 169              	.LBB32:
 170              	.LBI32:
 171              		.file 3 "Drivers/STM32F7xx_HAL_Driver/Inc/stm32f7xx_ll_bus.h"
   1:Drivers/STM32F7xx_HAL_Driver/Inc/stm32f7xx_ll_bus.h **** /**
   2:Drivers/STM32F7xx_HAL_Driver/Inc/stm32f7xx_ll_bus.h ****   ******************************************************************************
   3:Drivers/STM32F7xx_HAL_Driver/Inc/stm32f7xx_ll_bus.h ****   * @file    stm32f7xx_ll_bus.h
   4:Drivers/STM32F7xx_HAL_Driver/Inc/stm32f7xx_ll_bus.h ****   * @author  MCD Application Team
   5:Drivers/STM32F7xx_HAL_Driver/Inc/stm32f7xx_ll_bus.h ****   * @brief   Header file of BUS LL module.
   6:Drivers/STM32F7xx_HAL_Driver/Inc/stm32f7xx_ll_bus.h **** 
   7:Drivers/STM32F7xx_HAL_Driver/Inc/stm32f7xx_ll_bus.h ****   @verbatim
   8:Drivers/STM32F7xx_HAL_Driver/Inc/stm32f7xx_ll_bus.h ****                       ##### RCC Limitations #####
   9:Drivers/STM32F7xx_HAL_Driver/Inc/stm32f7xx_ll_bus.h ****   ==============================================================================
  10:Drivers/STM32F7xx_HAL_Driver/Inc/stm32f7xx_ll_bus.h ****     [..]  
  11:Drivers/STM32F7xx_HAL_Driver/Inc/stm32f7xx_ll_bus.h ****       A delay between an RCC peripheral clock enable and the effective peripheral 
  12:Drivers/STM32F7xx_HAL_Driver/Inc/stm32f7xx_ll_bus.h ****       enabling should be taken into account in order to manage the peripheral read/write 
  13:Drivers/STM32F7xx_HAL_Driver/Inc/stm32f7xx_ll_bus.h ****       from/to registers.
  14:Drivers/STM32F7xx_HAL_Driver/Inc/stm32f7xx_ll_bus.h ****       (+) This delay depends on the peripheral mapping.
  15:Drivers/STM32F7xx_HAL_Driver/Inc/stm32f7xx_ll_bus.h ****         (++) AHB & APB peripherals, 1 dummy read is necessary
  16:Drivers/STM32F7xx_HAL_Driver/Inc/stm32f7xx_ll_bus.h **** 
  17:Drivers/STM32F7xx_HAL_Driver/Inc/stm32f7xx_ll_bus.h ****     [..]  
  18:Drivers/STM32F7xx_HAL_Driver/Inc/stm32f7xx_ll_bus.h ****       Workarounds:
  19:Drivers/STM32F7xx_HAL_Driver/Inc/stm32f7xx_ll_bus.h ****       (#) For AHB & APB peripherals, a dummy read to the peripheral register has been
  20:Drivers/STM32F7xx_HAL_Driver/Inc/stm32f7xx_ll_bus.h ****           inserted in each LL_{BUS}_GRP{x}_EnableClock() function.
  21:Drivers/STM32F7xx_HAL_Driver/Inc/stm32f7xx_ll_bus.h **** 
  22:Drivers/STM32F7xx_HAL_Driver/Inc/stm32f7xx_ll_bus.h ****   @endverbatim
  23:Drivers/STM32F7xx_HAL_Driver/Inc/stm32f7xx_ll_bus.h ****   ******************************************************************************
  24:Drivers/STM32F7xx_HAL_Driver/Inc/stm32f7xx_ll_bus.h ****   * @attention
  25:Drivers/STM32F7xx_HAL_Driver/Inc/stm32f7xx_ll_bus.h ****   *
  26:Drivers/STM32F7xx_HAL_Driver/Inc/stm32f7xx_ll_bus.h ****   * <h2><center>&copy; Copyright (c) 2017 STMicroelectronics.
  27:Drivers/STM32F7xx_HAL_Driver/Inc/stm32f7xx_ll_bus.h ****   * All rights reserved.</center></h2>
  28:Drivers/STM32F7xx_HAL_Driver/Inc/stm32f7xx_ll_bus.h ****   *
  29:Drivers/STM32F7xx_HAL_Driver/Inc/stm32f7xx_ll_bus.h ****   * This software component is licensed by ST under BSD 3-Clause license,
  30:Drivers/STM32F7xx_HAL_Driver/Inc/stm32f7xx_ll_bus.h ****   * the "License"; You may not use this file except in compliance with the
  31:Drivers/STM32F7xx_HAL_Driver/Inc/stm32f7xx_ll_bus.h ****   * License. You may obtain a copy of the License at:
  32:Drivers/STM32F7xx_HAL_Driver/Inc/stm32f7xx_ll_bus.h ****   *                        opensource.org/licenses/BSD-3-Clause
  33:Drivers/STM32F7xx_HAL_Driver/Inc/stm32f7xx_ll_bus.h ****   *
  34:Drivers/STM32F7xx_HAL_Driver/Inc/stm32f7xx_ll_bus.h ****   ******************************************************************************
  35:Drivers/STM32F7xx_HAL_Driver/Inc/stm32f7xx_ll_bus.h ****   */
  36:Drivers/STM32F7xx_HAL_Driver/Inc/stm32f7xx_ll_bus.h **** 
  37:Drivers/STM32F7xx_HAL_Driver/Inc/stm32f7xx_ll_bus.h **** /* Define to prevent recursive inclusion -------------------------------------*/
  38:Drivers/STM32F7xx_HAL_Driver/Inc/stm32f7xx_ll_bus.h **** #ifndef __STM32F7xx_LL_BUS_H
  39:Drivers/STM32F7xx_HAL_Driver/Inc/stm32f7xx_ll_bus.h **** #define __STM32F7xx_LL_BUS_H
  40:Drivers/STM32F7xx_HAL_Driver/Inc/stm32f7xx_ll_bus.h **** 
  41:Drivers/STM32F7xx_HAL_Driver/Inc/stm32f7xx_ll_bus.h **** #ifdef __cplusplus
  42:Drivers/STM32F7xx_HAL_Driver/Inc/stm32f7xx_ll_bus.h **** extern "C" {
  43:Drivers/STM32F7xx_HAL_Driver/Inc/stm32f7xx_ll_bus.h **** #endif
  44:Drivers/STM32F7xx_HAL_Driver/Inc/stm32f7xx_ll_bus.h **** 
  45:Drivers/STM32F7xx_HAL_Driver/Inc/stm32f7xx_ll_bus.h **** /* Includes ------------------------------------------------------------------*/
ARM GAS  C:\Users\Giorgio\AppData\Local\Temp\ccg7jKJX.s 			page 19


  46:Drivers/STM32F7xx_HAL_Driver/Inc/stm32f7xx_ll_bus.h **** #include "stm32f7xx.h"
  47:Drivers/STM32F7xx_HAL_Driver/Inc/stm32f7xx_ll_bus.h **** 
  48:Drivers/STM32F7xx_HAL_Driver/Inc/stm32f7xx_ll_bus.h **** /** @addtogroup STM32F7xx_LL_Driver
  49:Drivers/STM32F7xx_HAL_Driver/Inc/stm32f7xx_ll_bus.h ****   * @{
  50:Drivers/STM32F7xx_HAL_Driver/Inc/stm32f7xx_ll_bus.h ****   */
  51:Drivers/STM32F7xx_HAL_Driver/Inc/stm32f7xx_ll_bus.h **** 
  52:Drivers/STM32F7xx_HAL_Driver/Inc/stm32f7xx_ll_bus.h **** #if defined(RCC)
  53:Drivers/STM32F7xx_HAL_Driver/Inc/stm32f7xx_ll_bus.h **** 
  54:Drivers/STM32F7xx_HAL_Driver/Inc/stm32f7xx_ll_bus.h **** /** @defgroup BUS_LL BUS
  55:Drivers/STM32F7xx_HAL_Driver/Inc/stm32f7xx_ll_bus.h ****   * @{
  56:Drivers/STM32F7xx_HAL_Driver/Inc/stm32f7xx_ll_bus.h ****   */
  57:Drivers/STM32F7xx_HAL_Driver/Inc/stm32f7xx_ll_bus.h **** 
  58:Drivers/STM32F7xx_HAL_Driver/Inc/stm32f7xx_ll_bus.h **** /* Private types -------------------------------------------------------------*/
  59:Drivers/STM32F7xx_HAL_Driver/Inc/stm32f7xx_ll_bus.h **** /* Private variables ---------------------------------------------------------*/
  60:Drivers/STM32F7xx_HAL_Driver/Inc/stm32f7xx_ll_bus.h **** /* Private constants ---------------------------------------------------------*/
  61:Drivers/STM32F7xx_HAL_Driver/Inc/stm32f7xx_ll_bus.h **** /* Private macros ------------------------------------------------------------*/
  62:Drivers/STM32F7xx_HAL_Driver/Inc/stm32f7xx_ll_bus.h **** /* Exported types ------------------------------------------------------------*/
  63:Drivers/STM32F7xx_HAL_Driver/Inc/stm32f7xx_ll_bus.h **** /* Exported constants --------------------------------------------------------*/
  64:Drivers/STM32F7xx_HAL_Driver/Inc/stm32f7xx_ll_bus.h **** /** @defgroup BUS_LL_Exported_Constants BUS Exported Constants
  65:Drivers/STM32F7xx_HAL_Driver/Inc/stm32f7xx_ll_bus.h ****   * @{
  66:Drivers/STM32F7xx_HAL_Driver/Inc/stm32f7xx_ll_bus.h ****   */
  67:Drivers/STM32F7xx_HAL_Driver/Inc/stm32f7xx_ll_bus.h **** 
  68:Drivers/STM32F7xx_HAL_Driver/Inc/stm32f7xx_ll_bus.h **** /** @defgroup BUS_LL_EC_AHB1_GRP1_PERIPH  AHB1 GRP1 PERIPH
  69:Drivers/STM32F7xx_HAL_Driver/Inc/stm32f7xx_ll_bus.h ****   * @{
  70:Drivers/STM32F7xx_HAL_Driver/Inc/stm32f7xx_ll_bus.h ****   */
  71:Drivers/STM32F7xx_HAL_Driver/Inc/stm32f7xx_ll_bus.h **** #define LL_AHB1_GRP1_PERIPH_ALL             0xFFFFFFFFU
  72:Drivers/STM32F7xx_HAL_Driver/Inc/stm32f7xx_ll_bus.h **** #define LL_AHB1_GRP1_PERIPH_GPIOA           RCC_AHB1ENR_GPIOAEN
  73:Drivers/STM32F7xx_HAL_Driver/Inc/stm32f7xx_ll_bus.h **** #define LL_AHB1_GRP1_PERIPH_GPIOB           RCC_AHB1ENR_GPIOBEN
  74:Drivers/STM32F7xx_HAL_Driver/Inc/stm32f7xx_ll_bus.h **** #define LL_AHB1_GRP1_PERIPH_GPIOC           RCC_AHB1ENR_GPIOCEN
  75:Drivers/STM32F7xx_HAL_Driver/Inc/stm32f7xx_ll_bus.h **** #define LL_AHB1_GRP1_PERIPH_GPIOD           RCC_AHB1ENR_GPIODEN
  76:Drivers/STM32F7xx_HAL_Driver/Inc/stm32f7xx_ll_bus.h **** #define LL_AHB1_GRP1_PERIPH_GPIOE           RCC_AHB1ENR_GPIOEEN
  77:Drivers/STM32F7xx_HAL_Driver/Inc/stm32f7xx_ll_bus.h **** #define LL_AHB1_GRP1_PERIPH_GPIOF           RCC_AHB1ENR_GPIOFEN
  78:Drivers/STM32F7xx_HAL_Driver/Inc/stm32f7xx_ll_bus.h **** #define LL_AHB1_GRP1_PERIPH_GPIOG           RCC_AHB1ENR_GPIOGEN
  79:Drivers/STM32F7xx_HAL_Driver/Inc/stm32f7xx_ll_bus.h **** #define LL_AHB1_GRP1_PERIPH_GPIOH           RCC_AHB1ENR_GPIOHEN
  80:Drivers/STM32F7xx_HAL_Driver/Inc/stm32f7xx_ll_bus.h **** #define LL_AHB1_GRP1_PERIPH_GPIOI           RCC_AHB1ENR_GPIOIEN
  81:Drivers/STM32F7xx_HAL_Driver/Inc/stm32f7xx_ll_bus.h **** #if defined(GPIOJ)
  82:Drivers/STM32F7xx_HAL_Driver/Inc/stm32f7xx_ll_bus.h **** #define LL_AHB1_GRP1_PERIPH_GPIOJ           RCC_AHB1ENR_GPIOJEN
  83:Drivers/STM32F7xx_HAL_Driver/Inc/stm32f7xx_ll_bus.h **** #endif /* GPIOJ */
  84:Drivers/STM32F7xx_HAL_Driver/Inc/stm32f7xx_ll_bus.h **** #if defined(GPIOK)
  85:Drivers/STM32F7xx_HAL_Driver/Inc/stm32f7xx_ll_bus.h **** #define LL_AHB1_GRP1_PERIPH_GPIOK           RCC_AHB1ENR_GPIOKEN
  86:Drivers/STM32F7xx_HAL_Driver/Inc/stm32f7xx_ll_bus.h **** #endif /* GPIOK */
  87:Drivers/STM32F7xx_HAL_Driver/Inc/stm32f7xx_ll_bus.h **** #define LL_AHB1_GRP1_PERIPH_CRC             RCC_AHB1ENR_CRCEN
  88:Drivers/STM32F7xx_HAL_Driver/Inc/stm32f7xx_ll_bus.h **** #define LL_AHB1_GRP1_PERIPH_BKPSRAM         RCC_AHB1ENR_BKPSRAMEN
  89:Drivers/STM32F7xx_HAL_Driver/Inc/stm32f7xx_ll_bus.h **** #define LL_AHB1_GRP1_PERIPH_DTCMRAM         RCC_AHB1ENR_DTCMRAMEN
  90:Drivers/STM32F7xx_HAL_Driver/Inc/stm32f7xx_ll_bus.h **** #define LL_AHB1_GRP1_PERIPH_DMA1            RCC_AHB1ENR_DMA1EN
  91:Drivers/STM32F7xx_HAL_Driver/Inc/stm32f7xx_ll_bus.h **** #define LL_AHB1_GRP1_PERIPH_DMA2            RCC_AHB1ENR_DMA2EN
  92:Drivers/STM32F7xx_HAL_Driver/Inc/stm32f7xx_ll_bus.h **** #if defined(DMA2D)
  93:Drivers/STM32F7xx_HAL_Driver/Inc/stm32f7xx_ll_bus.h **** #define LL_AHB1_GRP1_PERIPH_DMA2D           RCC_AHB1ENR_DMA2DEN
  94:Drivers/STM32F7xx_HAL_Driver/Inc/stm32f7xx_ll_bus.h **** #endif /* DMA2D */
  95:Drivers/STM32F7xx_HAL_Driver/Inc/stm32f7xx_ll_bus.h **** #if defined(ETH)
  96:Drivers/STM32F7xx_HAL_Driver/Inc/stm32f7xx_ll_bus.h **** #define LL_AHB1_GRP1_PERIPH_ETHMAC          RCC_AHB1ENR_ETHMACEN
  97:Drivers/STM32F7xx_HAL_Driver/Inc/stm32f7xx_ll_bus.h **** #define LL_AHB1_GRP1_PERIPH_ETHMACTX        RCC_AHB1ENR_ETHMACTXEN
  98:Drivers/STM32F7xx_HAL_Driver/Inc/stm32f7xx_ll_bus.h **** #define LL_AHB1_GRP1_PERIPH_ETHMACRX        RCC_AHB1ENR_ETHMACRXEN
  99:Drivers/STM32F7xx_HAL_Driver/Inc/stm32f7xx_ll_bus.h **** #define LL_AHB1_GRP1_PERIPH_ETHMACPTP       RCC_AHB1ENR_ETHMACPTPEN
 100:Drivers/STM32F7xx_HAL_Driver/Inc/stm32f7xx_ll_bus.h **** #endif /* ETH */
 101:Drivers/STM32F7xx_HAL_Driver/Inc/stm32f7xx_ll_bus.h **** #define LL_AHB1_GRP1_PERIPH_OTGHS           RCC_AHB1ENR_OTGHSEN
 102:Drivers/STM32F7xx_HAL_Driver/Inc/stm32f7xx_ll_bus.h **** #define LL_AHB1_GRP1_PERIPH_OTGHSULPI       RCC_AHB1ENR_OTGHSULPIEN
ARM GAS  C:\Users\Giorgio\AppData\Local\Temp\ccg7jKJX.s 			page 20


 103:Drivers/STM32F7xx_HAL_Driver/Inc/stm32f7xx_ll_bus.h **** #define LL_AHB1_GRP1_PERIPH_AXI             RCC_AHB1LPENR_AXILPEN
 104:Drivers/STM32F7xx_HAL_Driver/Inc/stm32f7xx_ll_bus.h **** #define LL_AHB1_GRP1_PERIPH_FLITF           RCC_AHB1LPENR_FLITFLPEN
 105:Drivers/STM32F7xx_HAL_Driver/Inc/stm32f7xx_ll_bus.h **** #define LL_AHB1_GRP1_PERIPH_SRAM1           RCC_AHB1LPENR_SRAM1LPEN
 106:Drivers/STM32F7xx_HAL_Driver/Inc/stm32f7xx_ll_bus.h **** #define LL_AHB1_GRP1_PERIPH_SRAM2           RCC_AHB1LPENR_SRAM2LPEN
 107:Drivers/STM32F7xx_HAL_Driver/Inc/stm32f7xx_ll_bus.h **** /**
 108:Drivers/STM32F7xx_HAL_Driver/Inc/stm32f7xx_ll_bus.h ****   * @}
 109:Drivers/STM32F7xx_HAL_Driver/Inc/stm32f7xx_ll_bus.h ****   */
 110:Drivers/STM32F7xx_HAL_Driver/Inc/stm32f7xx_ll_bus.h **** 
 111:Drivers/STM32F7xx_HAL_Driver/Inc/stm32f7xx_ll_bus.h **** /** @defgroup BUS_LL_EC_AHB2_GRP1_PERIPH  AHB2 GRP1 PERIPH
 112:Drivers/STM32F7xx_HAL_Driver/Inc/stm32f7xx_ll_bus.h ****   * @{
 113:Drivers/STM32F7xx_HAL_Driver/Inc/stm32f7xx_ll_bus.h ****   */
 114:Drivers/STM32F7xx_HAL_Driver/Inc/stm32f7xx_ll_bus.h **** #define LL_AHB2_GRP1_PERIPH_ALL            0xFFFFFFFFU
 115:Drivers/STM32F7xx_HAL_Driver/Inc/stm32f7xx_ll_bus.h **** #if defined(DCMI)
 116:Drivers/STM32F7xx_HAL_Driver/Inc/stm32f7xx_ll_bus.h **** #define LL_AHB2_GRP1_PERIPH_DCMI           RCC_AHB2ENR_DCMIEN
 117:Drivers/STM32F7xx_HAL_Driver/Inc/stm32f7xx_ll_bus.h **** #endif /* DCMI */
 118:Drivers/STM32F7xx_HAL_Driver/Inc/stm32f7xx_ll_bus.h **** #if defined(JPEG)
 119:Drivers/STM32F7xx_HAL_Driver/Inc/stm32f7xx_ll_bus.h **** #define LL_AHB2_GRP1_PERIPH_JPEG           RCC_AHB2ENR_JPEGEN
 120:Drivers/STM32F7xx_HAL_Driver/Inc/stm32f7xx_ll_bus.h **** #endif /* JPEG */
 121:Drivers/STM32F7xx_HAL_Driver/Inc/stm32f7xx_ll_bus.h **** #if defined(CRYP) 
 122:Drivers/STM32F7xx_HAL_Driver/Inc/stm32f7xx_ll_bus.h **** #define LL_AHB2_GRP1_PERIPH_CRYP           RCC_AHB2ENR_CRYPEN
 123:Drivers/STM32F7xx_HAL_Driver/Inc/stm32f7xx_ll_bus.h **** #endif /* CRYP */
 124:Drivers/STM32F7xx_HAL_Driver/Inc/stm32f7xx_ll_bus.h **** #if defined(AES)
 125:Drivers/STM32F7xx_HAL_Driver/Inc/stm32f7xx_ll_bus.h **** #define LL_AHB2_GRP1_PERIPH_AES            RCC_AHB2ENR_AESEN
 126:Drivers/STM32F7xx_HAL_Driver/Inc/stm32f7xx_ll_bus.h **** #endif /* AES */
 127:Drivers/STM32F7xx_HAL_Driver/Inc/stm32f7xx_ll_bus.h **** #if defined(HASH)
 128:Drivers/STM32F7xx_HAL_Driver/Inc/stm32f7xx_ll_bus.h **** #define LL_AHB2_GRP1_PERIPH_HASH           RCC_AHB2ENR_HASHEN
 129:Drivers/STM32F7xx_HAL_Driver/Inc/stm32f7xx_ll_bus.h **** #endif /* HASH */
 130:Drivers/STM32F7xx_HAL_Driver/Inc/stm32f7xx_ll_bus.h **** #define LL_AHB2_GRP1_PERIPH_RNG            RCC_AHB2ENR_RNGEN
 131:Drivers/STM32F7xx_HAL_Driver/Inc/stm32f7xx_ll_bus.h **** #define LL_AHB2_GRP1_PERIPH_OTGFS          RCC_AHB2ENR_OTGFSEN
 132:Drivers/STM32F7xx_HAL_Driver/Inc/stm32f7xx_ll_bus.h **** /**
 133:Drivers/STM32F7xx_HAL_Driver/Inc/stm32f7xx_ll_bus.h ****   * @}
 134:Drivers/STM32F7xx_HAL_Driver/Inc/stm32f7xx_ll_bus.h ****   */
 135:Drivers/STM32F7xx_HAL_Driver/Inc/stm32f7xx_ll_bus.h **** 
 136:Drivers/STM32F7xx_HAL_Driver/Inc/stm32f7xx_ll_bus.h **** /** @defgroup BUS_LL_EC_AHB3_GRP1_PERIPH  AHB3 GRP1 PERIPH
 137:Drivers/STM32F7xx_HAL_Driver/Inc/stm32f7xx_ll_bus.h ****   * @{
 138:Drivers/STM32F7xx_HAL_Driver/Inc/stm32f7xx_ll_bus.h ****   */
 139:Drivers/STM32F7xx_HAL_Driver/Inc/stm32f7xx_ll_bus.h **** #define LL_AHB3_GRP1_PERIPH_ALL            0xFFFFFFFFU
 140:Drivers/STM32F7xx_HAL_Driver/Inc/stm32f7xx_ll_bus.h **** #define LL_AHB3_GRP1_PERIPH_FMC            RCC_AHB3ENR_FMCEN
 141:Drivers/STM32F7xx_HAL_Driver/Inc/stm32f7xx_ll_bus.h **** #define LL_AHB3_GRP1_PERIPH_QSPI           RCC_AHB3ENR_QSPIEN
 142:Drivers/STM32F7xx_HAL_Driver/Inc/stm32f7xx_ll_bus.h **** /**
 143:Drivers/STM32F7xx_HAL_Driver/Inc/stm32f7xx_ll_bus.h ****   * @}
 144:Drivers/STM32F7xx_HAL_Driver/Inc/stm32f7xx_ll_bus.h ****   */
 145:Drivers/STM32F7xx_HAL_Driver/Inc/stm32f7xx_ll_bus.h **** 
 146:Drivers/STM32F7xx_HAL_Driver/Inc/stm32f7xx_ll_bus.h **** /** @defgroup BUS_LL_EC_APB1_GRP1_PERIPH  APB1 GRP1 PERIPH
 147:Drivers/STM32F7xx_HAL_Driver/Inc/stm32f7xx_ll_bus.h ****   * @{
 148:Drivers/STM32F7xx_HAL_Driver/Inc/stm32f7xx_ll_bus.h ****   */
 149:Drivers/STM32F7xx_HAL_Driver/Inc/stm32f7xx_ll_bus.h **** #define LL_APB1_GRP1_PERIPH_ALL            0xFFFFFFFFU
 150:Drivers/STM32F7xx_HAL_Driver/Inc/stm32f7xx_ll_bus.h **** #define LL_APB1_GRP1_PERIPH_TIM2           RCC_APB1ENR_TIM2EN
 151:Drivers/STM32F7xx_HAL_Driver/Inc/stm32f7xx_ll_bus.h **** #define LL_APB1_GRP1_PERIPH_TIM3           RCC_APB1ENR_TIM3EN
 152:Drivers/STM32F7xx_HAL_Driver/Inc/stm32f7xx_ll_bus.h **** #define LL_APB1_GRP1_PERIPH_TIM4           RCC_APB1ENR_TIM4EN
 153:Drivers/STM32F7xx_HAL_Driver/Inc/stm32f7xx_ll_bus.h **** #define LL_APB1_GRP1_PERIPH_TIM5           RCC_APB1ENR_TIM5EN
 154:Drivers/STM32F7xx_HAL_Driver/Inc/stm32f7xx_ll_bus.h **** #define LL_APB1_GRP1_PERIPH_TIM6           RCC_APB1ENR_TIM6EN
 155:Drivers/STM32F7xx_HAL_Driver/Inc/stm32f7xx_ll_bus.h **** #define LL_APB1_GRP1_PERIPH_TIM7           RCC_APB1ENR_TIM7EN
 156:Drivers/STM32F7xx_HAL_Driver/Inc/stm32f7xx_ll_bus.h **** #define LL_APB1_GRP1_PERIPH_TIM12          RCC_APB1ENR_TIM12EN
 157:Drivers/STM32F7xx_HAL_Driver/Inc/stm32f7xx_ll_bus.h **** #define LL_APB1_GRP1_PERIPH_TIM13          RCC_APB1ENR_TIM13EN
 158:Drivers/STM32F7xx_HAL_Driver/Inc/stm32f7xx_ll_bus.h **** #define LL_APB1_GRP1_PERIPH_TIM14          RCC_APB1ENR_TIM14EN
 159:Drivers/STM32F7xx_HAL_Driver/Inc/stm32f7xx_ll_bus.h **** #define LL_APB1_GRP1_PERIPH_LPTIM1         RCC_APB1ENR_LPTIM1EN
ARM GAS  C:\Users\Giorgio\AppData\Local\Temp\ccg7jKJX.s 			page 21


 160:Drivers/STM32F7xx_HAL_Driver/Inc/stm32f7xx_ll_bus.h **** #define LL_APB1_GRP1_PERIPH_WWDG           RCC_APB1ENR_WWDGEN
 161:Drivers/STM32F7xx_HAL_Driver/Inc/stm32f7xx_ll_bus.h **** #define LL_APB1_GRP1_PERIPH_SPI2           RCC_APB1ENR_SPI2EN
 162:Drivers/STM32F7xx_HAL_Driver/Inc/stm32f7xx_ll_bus.h **** #define LL_APB1_GRP1_PERIPH_SPI3           RCC_APB1ENR_SPI3EN
 163:Drivers/STM32F7xx_HAL_Driver/Inc/stm32f7xx_ll_bus.h **** #if defined(SPDIFRX)
 164:Drivers/STM32F7xx_HAL_Driver/Inc/stm32f7xx_ll_bus.h **** #define LL_APB1_GRP1_PERIPH_SPDIFRX        RCC_APB1ENR_SPDIFRXEN
 165:Drivers/STM32F7xx_HAL_Driver/Inc/stm32f7xx_ll_bus.h **** #endif /* SPDIFRX */
 166:Drivers/STM32F7xx_HAL_Driver/Inc/stm32f7xx_ll_bus.h **** #define LL_APB1_GRP1_PERIPH_USART2         RCC_APB1ENR_USART2EN
 167:Drivers/STM32F7xx_HAL_Driver/Inc/stm32f7xx_ll_bus.h **** #define LL_APB1_GRP1_PERIPH_USART3         RCC_APB1ENR_USART3EN
 168:Drivers/STM32F7xx_HAL_Driver/Inc/stm32f7xx_ll_bus.h **** #define LL_APB1_GRP1_PERIPH_UART4          RCC_APB1ENR_UART4EN
 169:Drivers/STM32F7xx_HAL_Driver/Inc/stm32f7xx_ll_bus.h **** #define LL_APB1_GRP1_PERIPH_UART5          RCC_APB1ENR_UART5EN
 170:Drivers/STM32F7xx_HAL_Driver/Inc/stm32f7xx_ll_bus.h **** #define LL_APB1_GRP1_PERIPH_I2C1           RCC_APB1ENR_I2C1EN
 171:Drivers/STM32F7xx_HAL_Driver/Inc/stm32f7xx_ll_bus.h **** #define LL_APB1_GRP1_PERIPH_I2C2           RCC_APB1ENR_I2C2EN
 172:Drivers/STM32F7xx_HAL_Driver/Inc/stm32f7xx_ll_bus.h **** #define LL_APB1_GRP1_PERIPH_I2C3           RCC_APB1ENR_I2C3EN
 173:Drivers/STM32F7xx_HAL_Driver/Inc/stm32f7xx_ll_bus.h **** #if defined(I2C4)
 174:Drivers/STM32F7xx_HAL_Driver/Inc/stm32f7xx_ll_bus.h **** #define LL_APB1_GRP1_PERIPH_I2C4           RCC_APB1ENR_I2C4EN
 175:Drivers/STM32F7xx_HAL_Driver/Inc/stm32f7xx_ll_bus.h **** #endif /* I2C4 */
 176:Drivers/STM32F7xx_HAL_Driver/Inc/stm32f7xx_ll_bus.h **** #define LL_APB1_GRP1_PERIPH_CAN1           RCC_APB1ENR_CAN1EN
 177:Drivers/STM32F7xx_HAL_Driver/Inc/stm32f7xx_ll_bus.h **** #if defined(CAN2)
 178:Drivers/STM32F7xx_HAL_Driver/Inc/stm32f7xx_ll_bus.h **** #define LL_APB1_GRP1_PERIPH_CAN2           RCC_APB1ENR_CAN2EN
 179:Drivers/STM32F7xx_HAL_Driver/Inc/stm32f7xx_ll_bus.h **** #endif /* CAN2 */
 180:Drivers/STM32F7xx_HAL_Driver/Inc/stm32f7xx_ll_bus.h **** #if defined(CAN3)
 181:Drivers/STM32F7xx_HAL_Driver/Inc/stm32f7xx_ll_bus.h **** #define LL_APB1_GRP1_PERIPH_CAN3           RCC_APB1ENR_CAN3EN
 182:Drivers/STM32F7xx_HAL_Driver/Inc/stm32f7xx_ll_bus.h **** #endif /* CAN3 */
 183:Drivers/STM32F7xx_HAL_Driver/Inc/stm32f7xx_ll_bus.h **** #if defined(CEC)
 184:Drivers/STM32F7xx_HAL_Driver/Inc/stm32f7xx_ll_bus.h **** #define LL_APB1_GRP1_PERIPH_CEC            RCC_APB1ENR_CECEN
 185:Drivers/STM32F7xx_HAL_Driver/Inc/stm32f7xx_ll_bus.h **** #endif /* CEC */
 186:Drivers/STM32F7xx_HAL_Driver/Inc/stm32f7xx_ll_bus.h **** #define LL_APB1_GRP1_PERIPH_PWR            RCC_APB1ENR_PWREN
 187:Drivers/STM32F7xx_HAL_Driver/Inc/stm32f7xx_ll_bus.h **** #define LL_APB1_GRP1_PERIPH_DAC1           RCC_APB1ENR_DACEN
 188:Drivers/STM32F7xx_HAL_Driver/Inc/stm32f7xx_ll_bus.h **** #define LL_APB1_GRP1_PERIPH_UART7          RCC_APB1ENR_UART7EN
 189:Drivers/STM32F7xx_HAL_Driver/Inc/stm32f7xx_ll_bus.h **** #define LL_APB1_GRP1_PERIPH_UART8          RCC_APB1ENR_UART8EN
 190:Drivers/STM32F7xx_HAL_Driver/Inc/stm32f7xx_ll_bus.h **** #if defined(RCC_APB1ENR_RTCEN)
 191:Drivers/STM32F7xx_HAL_Driver/Inc/stm32f7xx_ll_bus.h **** #define LL_APB1_GRP1_PERIPH_RTCAPB         RCC_APB1ENR_RTCEN
 192:Drivers/STM32F7xx_HAL_Driver/Inc/stm32f7xx_ll_bus.h **** #endif /* RCC_APB1ENR_RTCEN */
 193:Drivers/STM32F7xx_HAL_Driver/Inc/stm32f7xx_ll_bus.h **** /**
 194:Drivers/STM32F7xx_HAL_Driver/Inc/stm32f7xx_ll_bus.h ****   * @}
 195:Drivers/STM32F7xx_HAL_Driver/Inc/stm32f7xx_ll_bus.h ****   */
 196:Drivers/STM32F7xx_HAL_Driver/Inc/stm32f7xx_ll_bus.h **** 
 197:Drivers/STM32F7xx_HAL_Driver/Inc/stm32f7xx_ll_bus.h **** /** @defgroup BUS_LL_EC_APB2_GRP1_PERIPH  APB2 GRP1 PERIPH
 198:Drivers/STM32F7xx_HAL_Driver/Inc/stm32f7xx_ll_bus.h ****   * @{
 199:Drivers/STM32F7xx_HAL_Driver/Inc/stm32f7xx_ll_bus.h ****   */
 200:Drivers/STM32F7xx_HAL_Driver/Inc/stm32f7xx_ll_bus.h **** #define LL_APB2_GRP1_PERIPH_ALL          0xFFFFFFFFU
 201:Drivers/STM32F7xx_HAL_Driver/Inc/stm32f7xx_ll_bus.h **** #define LL_APB2_GRP1_PERIPH_TIM1         RCC_APB2ENR_TIM1EN
 202:Drivers/STM32F7xx_HAL_Driver/Inc/stm32f7xx_ll_bus.h **** #define LL_APB2_GRP1_PERIPH_TIM8         RCC_APB2ENR_TIM8EN
 203:Drivers/STM32F7xx_HAL_Driver/Inc/stm32f7xx_ll_bus.h **** #define LL_APB2_GRP1_PERIPH_USART1       RCC_APB2ENR_USART1EN
 204:Drivers/STM32F7xx_HAL_Driver/Inc/stm32f7xx_ll_bus.h **** #define LL_APB2_GRP1_PERIPH_USART6       RCC_APB2ENR_USART6EN
 205:Drivers/STM32F7xx_HAL_Driver/Inc/stm32f7xx_ll_bus.h **** #define LL_APB2_GRP1_PERIPH_ADC1         RCC_APB2ENR_ADC1EN
 206:Drivers/STM32F7xx_HAL_Driver/Inc/stm32f7xx_ll_bus.h **** #define LL_APB2_GRP1_PERIPH_ADC2         RCC_APB2ENR_ADC2EN
 207:Drivers/STM32F7xx_HAL_Driver/Inc/stm32f7xx_ll_bus.h **** #define LL_APB2_GRP1_PERIPH_ADC3         RCC_APB2ENR_ADC3EN
 208:Drivers/STM32F7xx_HAL_Driver/Inc/stm32f7xx_ll_bus.h **** #define LL_APB2_GRP1_PERIPH_SDMMC1       RCC_APB2ENR_SDMMC1EN
 209:Drivers/STM32F7xx_HAL_Driver/Inc/stm32f7xx_ll_bus.h **** #if defined(SDMMC2)
 210:Drivers/STM32F7xx_HAL_Driver/Inc/stm32f7xx_ll_bus.h **** #define LL_APB2_GRP1_PERIPH_SDMMC2       RCC_APB2ENR_SDMMC2EN
 211:Drivers/STM32F7xx_HAL_Driver/Inc/stm32f7xx_ll_bus.h **** #endif /* SDMMC2 */
 212:Drivers/STM32F7xx_HAL_Driver/Inc/stm32f7xx_ll_bus.h **** #define LL_APB2_GRP1_PERIPH_SPI1         RCC_APB2ENR_SPI1EN
 213:Drivers/STM32F7xx_HAL_Driver/Inc/stm32f7xx_ll_bus.h **** #define LL_APB2_GRP1_PERIPH_SPI4         RCC_APB2ENR_SPI4EN
 214:Drivers/STM32F7xx_HAL_Driver/Inc/stm32f7xx_ll_bus.h **** #define LL_APB2_GRP1_PERIPH_SYSCFG       RCC_APB2ENR_SYSCFGEN
 215:Drivers/STM32F7xx_HAL_Driver/Inc/stm32f7xx_ll_bus.h **** #define LL_APB2_GRP1_PERIPH_TIM9         RCC_APB2ENR_TIM9EN
 216:Drivers/STM32F7xx_HAL_Driver/Inc/stm32f7xx_ll_bus.h **** #define LL_APB2_GRP1_PERIPH_TIM10        RCC_APB2ENR_TIM10EN
ARM GAS  C:\Users\Giorgio\AppData\Local\Temp\ccg7jKJX.s 			page 22


 217:Drivers/STM32F7xx_HAL_Driver/Inc/stm32f7xx_ll_bus.h **** #define LL_APB2_GRP1_PERIPH_TIM11        RCC_APB2ENR_TIM11EN
 218:Drivers/STM32F7xx_HAL_Driver/Inc/stm32f7xx_ll_bus.h **** #define LL_APB2_GRP1_PERIPH_SPI5         RCC_APB2ENR_SPI5EN
 219:Drivers/STM32F7xx_HAL_Driver/Inc/stm32f7xx_ll_bus.h **** #if defined(SPI6)
 220:Drivers/STM32F7xx_HAL_Driver/Inc/stm32f7xx_ll_bus.h **** #define LL_APB2_GRP1_PERIPH_SPI6         RCC_APB2ENR_SPI6EN
 221:Drivers/STM32F7xx_HAL_Driver/Inc/stm32f7xx_ll_bus.h **** #endif /* SPI6 */
 222:Drivers/STM32F7xx_HAL_Driver/Inc/stm32f7xx_ll_bus.h **** #define LL_APB2_GRP1_PERIPH_SAI1         RCC_APB2ENR_SAI1EN
 223:Drivers/STM32F7xx_HAL_Driver/Inc/stm32f7xx_ll_bus.h **** #define LL_APB2_GRP1_PERIPH_SAI2         RCC_APB2ENR_SAI2EN
 224:Drivers/STM32F7xx_HAL_Driver/Inc/stm32f7xx_ll_bus.h **** #if defined(LTDC)
 225:Drivers/STM32F7xx_HAL_Driver/Inc/stm32f7xx_ll_bus.h **** #define LL_APB2_GRP1_PERIPH_LTDC         RCC_APB2ENR_LTDCEN
 226:Drivers/STM32F7xx_HAL_Driver/Inc/stm32f7xx_ll_bus.h **** #endif /* LTDC */
 227:Drivers/STM32F7xx_HAL_Driver/Inc/stm32f7xx_ll_bus.h **** #if defined(DSI)
 228:Drivers/STM32F7xx_HAL_Driver/Inc/stm32f7xx_ll_bus.h **** #define LL_APB2_GRP1_PERIPH_DSI          RCC_APB2ENR_DSIEN
 229:Drivers/STM32F7xx_HAL_Driver/Inc/stm32f7xx_ll_bus.h **** #endif /* DSI */
 230:Drivers/STM32F7xx_HAL_Driver/Inc/stm32f7xx_ll_bus.h **** #if defined(DFSDM1_Channel0)
 231:Drivers/STM32F7xx_HAL_Driver/Inc/stm32f7xx_ll_bus.h **** #define LL_APB2_GRP1_PERIPH_DFSDM1       RCC_APB2ENR_DFSDM1EN
 232:Drivers/STM32F7xx_HAL_Driver/Inc/stm32f7xx_ll_bus.h **** #endif /* DFSDM1_Channel0 */
 233:Drivers/STM32F7xx_HAL_Driver/Inc/stm32f7xx_ll_bus.h **** #if defined(MDIOS)
 234:Drivers/STM32F7xx_HAL_Driver/Inc/stm32f7xx_ll_bus.h **** #define LL_APB2_GRP1_PERIPH_MDIO         RCC_APB2ENR_MDIOEN
 235:Drivers/STM32F7xx_HAL_Driver/Inc/stm32f7xx_ll_bus.h **** #endif /* MDIOS */
 236:Drivers/STM32F7xx_HAL_Driver/Inc/stm32f7xx_ll_bus.h **** #if defined(USB_HS_PHYC)
 237:Drivers/STM32F7xx_HAL_Driver/Inc/stm32f7xx_ll_bus.h **** #define LL_APB2_GRP1_PERIPH_OTGPHYC      RCC_APB2ENR_OTGPHYCEN
 238:Drivers/STM32F7xx_HAL_Driver/Inc/stm32f7xx_ll_bus.h **** #endif /* USB_HS_PHYC */
 239:Drivers/STM32F7xx_HAL_Driver/Inc/stm32f7xx_ll_bus.h **** #define LL_APB2_GRP1_PERIPH_ADC          RCC_APB2RSTR_ADCRST
 240:Drivers/STM32F7xx_HAL_Driver/Inc/stm32f7xx_ll_bus.h **** /**
 241:Drivers/STM32F7xx_HAL_Driver/Inc/stm32f7xx_ll_bus.h ****   * @}
 242:Drivers/STM32F7xx_HAL_Driver/Inc/stm32f7xx_ll_bus.h ****   */
 243:Drivers/STM32F7xx_HAL_Driver/Inc/stm32f7xx_ll_bus.h **** 
 244:Drivers/STM32F7xx_HAL_Driver/Inc/stm32f7xx_ll_bus.h **** /**
 245:Drivers/STM32F7xx_HAL_Driver/Inc/stm32f7xx_ll_bus.h ****   * @}
 246:Drivers/STM32F7xx_HAL_Driver/Inc/stm32f7xx_ll_bus.h ****   */
 247:Drivers/STM32F7xx_HAL_Driver/Inc/stm32f7xx_ll_bus.h **** 
 248:Drivers/STM32F7xx_HAL_Driver/Inc/stm32f7xx_ll_bus.h **** /* Exported macro ------------------------------------------------------------*/
 249:Drivers/STM32F7xx_HAL_Driver/Inc/stm32f7xx_ll_bus.h **** /* Exported functions --------------------------------------------------------*/
 250:Drivers/STM32F7xx_HAL_Driver/Inc/stm32f7xx_ll_bus.h **** /** @defgroup BUS_LL_Exported_Functions BUS Exported Functions
 251:Drivers/STM32F7xx_HAL_Driver/Inc/stm32f7xx_ll_bus.h ****   * @{
 252:Drivers/STM32F7xx_HAL_Driver/Inc/stm32f7xx_ll_bus.h ****   */
 253:Drivers/STM32F7xx_HAL_Driver/Inc/stm32f7xx_ll_bus.h **** 
 254:Drivers/STM32F7xx_HAL_Driver/Inc/stm32f7xx_ll_bus.h **** /** @defgroup BUS_LL_EF_AHB1 AHB1
 255:Drivers/STM32F7xx_HAL_Driver/Inc/stm32f7xx_ll_bus.h ****   * @{
 256:Drivers/STM32F7xx_HAL_Driver/Inc/stm32f7xx_ll_bus.h ****   */
 257:Drivers/STM32F7xx_HAL_Driver/Inc/stm32f7xx_ll_bus.h **** 
 258:Drivers/STM32F7xx_HAL_Driver/Inc/stm32f7xx_ll_bus.h **** /**
 259:Drivers/STM32F7xx_HAL_Driver/Inc/stm32f7xx_ll_bus.h ****   * @brief  Enable AHB1 peripherals clock.
 260:Drivers/STM32F7xx_HAL_Driver/Inc/stm32f7xx_ll_bus.h ****   * @rmtoll AHB1ENR      GPIOAEN            LL_AHB1_GRP1_EnableClock\n
 261:Drivers/STM32F7xx_HAL_Driver/Inc/stm32f7xx_ll_bus.h ****   *         AHB1ENR      GPIOBEN            LL_AHB1_GRP1_EnableClock\n
 262:Drivers/STM32F7xx_HAL_Driver/Inc/stm32f7xx_ll_bus.h ****   *         AHB1ENR      GPIOCEN            LL_AHB1_GRP1_EnableClock\n
 263:Drivers/STM32F7xx_HAL_Driver/Inc/stm32f7xx_ll_bus.h ****   *         AHB1ENR      GPIODEN            LL_AHB1_GRP1_EnableClock\n
 264:Drivers/STM32F7xx_HAL_Driver/Inc/stm32f7xx_ll_bus.h ****   *         AHB1ENR      GPIOEEN            LL_AHB1_GRP1_EnableClock\n
 265:Drivers/STM32F7xx_HAL_Driver/Inc/stm32f7xx_ll_bus.h ****   *         AHB1ENR      GPIOFEN            LL_AHB1_GRP1_EnableClock\n
 266:Drivers/STM32F7xx_HAL_Driver/Inc/stm32f7xx_ll_bus.h ****   *         AHB1ENR      GPIOGEN            LL_AHB1_GRP1_EnableClock\n
 267:Drivers/STM32F7xx_HAL_Driver/Inc/stm32f7xx_ll_bus.h ****   *         AHB1ENR      GPIOHEN            LL_AHB1_GRP1_EnableClock\n
 268:Drivers/STM32F7xx_HAL_Driver/Inc/stm32f7xx_ll_bus.h ****   *         AHB1ENR      GPIOIEN            LL_AHB1_GRP1_EnableClock\n
 269:Drivers/STM32F7xx_HAL_Driver/Inc/stm32f7xx_ll_bus.h ****   *         AHB1ENR      GPIOJEN            LL_AHB1_GRP1_EnableClock\n
 270:Drivers/STM32F7xx_HAL_Driver/Inc/stm32f7xx_ll_bus.h ****   *         AHB1ENR      GPIOKEN            LL_AHB1_GRP1_EnableClock\n
 271:Drivers/STM32F7xx_HAL_Driver/Inc/stm32f7xx_ll_bus.h ****   *         AHB1ENR      CRCEN              LL_AHB1_GRP1_EnableClock\n
 272:Drivers/STM32F7xx_HAL_Driver/Inc/stm32f7xx_ll_bus.h ****   *         AHB1ENR      BKPSRAMEN          LL_AHB1_GRP1_EnableClock\n
 273:Drivers/STM32F7xx_HAL_Driver/Inc/stm32f7xx_ll_bus.h ****   *         AHB1ENR      DTCMRAMEN          LL_AHB1_GRP1_EnableClock\n
ARM GAS  C:\Users\Giorgio\AppData\Local\Temp\ccg7jKJX.s 			page 23


 274:Drivers/STM32F7xx_HAL_Driver/Inc/stm32f7xx_ll_bus.h ****   *         AHB1ENR      DMA1EN             LL_AHB1_GRP1_EnableClock\n
 275:Drivers/STM32F7xx_HAL_Driver/Inc/stm32f7xx_ll_bus.h ****   *         AHB1ENR      DMA2EN             LL_AHB1_GRP1_EnableClock\n
 276:Drivers/STM32F7xx_HAL_Driver/Inc/stm32f7xx_ll_bus.h ****   *         AHB1ENR      DMA2DEN            LL_AHB1_GRP1_EnableClock\n
 277:Drivers/STM32F7xx_HAL_Driver/Inc/stm32f7xx_ll_bus.h ****   *         AHB1ENR      ETHMACEN           LL_AHB1_GRP1_EnableClock\n
 278:Drivers/STM32F7xx_HAL_Driver/Inc/stm32f7xx_ll_bus.h ****   *         AHB1ENR      ETHMACTXEN         LL_AHB1_GRP1_EnableClock\n
 279:Drivers/STM32F7xx_HAL_Driver/Inc/stm32f7xx_ll_bus.h ****   *         AHB1ENR      ETHMACRXEN         LL_AHB1_GRP1_EnableClock\n
 280:Drivers/STM32F7xx_HAL_Driver/Inc/stm32f7xx_ll_bus.h ****   *         AHB1ENR      ETHMACPTPEN        LL_AHB1_GRP1_EnableClock\n
 281:Drivers/STM32F7xx_HAL_Driver/Inc/stm32f7xx_ll_bus.h ****   *         AHB1ENR      OTGHSEN            LL_AHB1_GRP1_EnableClock\n
 282:Drivers/STM32F7xx_HAL_Driver/Inc/stm32f7xx_ll_bus.h ****   *         AHB1ENR      OTGHSULPIEN        LL_AHB1_GRP1_EnableClock
 283:Drivers/STM32F7xx_HAL_Driver/Inc/stm32f7xx_ll_bus.h ****   * @param  Periphs This parameter can be a combination of the following values:
 284:Drivers/STM32F7xx_HAL_Driver/Inc/stm32f7xx_ll_bus.h ****   *         @arg @ref LL_AHB1_GRP1_PERIPH_GPIOA
 285:Drivers/STM32F7xx_HAL_Driver/Inc/stm32f7xx_ll_bus.h ****   *         @arg @ref LL_AHB1_GRP1_PERIPH_GPIOB
 286:Drivers/STM32F7xx_HAL_Driver/Inc/stm32f7xx_ll_bus.h ****   *         @arg @ref LL_AHB1_GRP1_PERIPH_GPIOC
 287:Drivers/STM32F7xx_HAL_Driver/Inc/stm32f7xx_ll_bus.h ****   *         @arg @ref LL_AHB1_GRP1_PERIPH_GPIOD
 288:Drivers/STM32F7xx_HAL_Driver/Inc/stm32f7xx_ll_bus.h ****   *         @arg @ref LL_AHB1_GRP1_PERIPH_GPIOE
 289:Drivers/STM32F7xx_HAL_Driver/Inc/stm32f7xx_ll_bus.h ****   *         @arg @ref LL_AHB1_GRP1_PERIPH_GPIOF
 290:Drivers/STM32F7xx_HAL_Driver/Inc/stm32f7xx_ll_bus.h ****   *         @arg @ref LL_AHB1_GRP1_PERIPH_GPIOG
 291:Drivers/STM32F7xx_HAL_Driver/Inc/stm32f7xx_ll_bus.h ****   *         @arg @ref LL_AHB1_GRP1_PERIPH_GPIOH
 292:Drivers/STM32F7xx_HAL_Driver/Inc/stm32f7xx_ll_bus.h ****   *         @arg @ref LL_AHB1_GRP1_PERIPH_GPIOI
 293:Drivers/STM32F7xx_HAL_Driver/Inc/stm32f7xx_ll_bus.h ****   *         @arg @ref LL_AHB1_GRP1_PERIPH_GPIOJ (*)
 294:Drivers/STM32F7xx_HAL_Driver/Inc/stm32f7xx_ll_bus.h ****   *         @arg @ref LL_AHB1_GRP1_PERIPH_GPIOK (*)
 295:Drivers/STM32F7xx_HAL_Driver/Inc/stm32f7xx_ll_bus.h ****   *         @arg @ref LL_AHB1_GRP1_PERIPH_CRC
 296:Drivers/STM32F7xx_HAL_Driver/Inc/stm32f7xx_ll_bus.h ****   *         @arg @ref LL_AHB1_GRP1_PERIPH_BKPSRAM
 297:Drivers/STM32F7xx_HAL_Driver/Inc/stm32f7xx_ll_bus.h ****   *         @arg @ref LL_AHB1_GRP1_PERIPH_DTCMRAM
 298:Drivers/STM32F7xx_HAL_Driver/Inc/stm32f7xx_ll_bus.h ****   *         @arg @ref LL_AHB1_GRP1_PERIPH_DMA1
 299:Drivers/STM32F7xx_HAL_Driver/Inc/stm32f7xx_ll_bus.h ****   *         @arg @ref LL_AHB1_GRP1_PERIPH_DMA2
 300:Drivers/STM32F7xx_HAL_Driver/Inc/stm32f7xx_ll_bus.h ****   *         @arg @ref LL_AHB1_GRP1_PERIPH_DMA2D (*)
 301:Drivers/STM32F7xx_HAL_Driver/Inc/stm32f7xx_ll_bus.h ****   *         @arg @ref LL_AHB1_GRP1_PERIPH_ETHMAC (*)
 302:Drivers/STM32F7xx_HAL_Driver/Inc/stm32f7xx_ll_bus.h ****   *         @arg @ref LL_AHB1_GRP1_PERIPH_ETHMACTX (*)
 303:Drivers/STM32F7xx_HAL_Driver/Inc/stm32f7xx_ll_bus.h ****   *         @arg @ref LL_AHB1_GRP1_PERIPH_ETHMACRX (*)
 304:Drivers/STM32F7xx_HAL_Driver/Inc/stm32f7xx_ll_bus.h ****   *         @arg @ref LL_AHB1_GRP1_PERIPH_ETHMACPTP (*)
 305:Drivers/STM32F7xx_HAL_Driver/Inc/stm32f7xx_ll_bus.h ****   *         @arg @ref LL_AHB1_GRP1_PERIPH_OTGHS
 306:Drivers/STM32F7xx_HAL_Driver/Inc/stm32f7xx_ll_bus.h ****   *         @arg @ref LL_AHB1_GRP1_PERIPH_OTGHSULPI
 307:Drivers/STM32F7xx_HAL_Driver/Inc/stm32f7xx_ll_bus.h ****   *
 308:Drivers/STM32F7xx_HAL_Driver/Inc/stm32f7xx_ll_bus.h ****   *         (*) value not defined in all devices.
 309:Drivers/STM32F7xx_HAL_Driver/Inc/stm32f7xx_ll_bus.h ****   * @retval None
 310:Drivers/STM32F7xx_HAL_Driver/Inc/stm32f7xx_ll_bus.h **** */
 311:Drivers/STM32F7xx_HAL_Driver/Inc/stm32f7xx_ll_bus.h **** __STATIC_INLINE void LL_AHB1_GRP1_EnableClock(uint32_t Periphs)
 312:Drivers/STM32F7xx_HAL_Driver/Inc/stm32f7xx_ll_bus.h **** {
 313:Drivers/STM32F7xx_HAL_Driver/Inc/stm32f7xx_ll_bus.h ****   __IO uint32_t tmpreg;
 314:Drivers/STM32F7xx_HAL_Driver/Inc/stm32f7xx_ll_bus.h ****   SET_BIT(RCC->AHB1ENR, Periphs);
 315:Drivers/STM32F7xx_HAL_Driver/Inc/stm32f7xx_ll_bus.h ****   /* Delay after an RCC peripheral clock enabling */
 316:Drivers/STM32F7xx_HAL_Driver/Inc/stm32f7xx_ll_bus.h ****   tmpreg = READ_BIT(RCC->AHB1ENR, Periphs);
 317:Drivers/STM32F7xx_HAL_Driver/Inc/stm32f7xx_ll_bus.h ****   (void)tmpreg;
 318:Drivers/STM32F7xx_HAL_Driver/Inc/stm32f7xx_ll_bus.h **** }
 319:Drivers/STM32F7xx_HAL_Driver/Inc/stm32f7xx_ll_bus.h **** 
 320:Drivers/STM32F7xx_HAL_Driver/Inc/stm32f7xx_ll_bus.h **** /**
 321:Drivers/STM32F7xx_HAL_Driver/Inc/stm32f7xx_ll_bus.h ****   * @brief  Check if AHB1 peripheral clock is enabled or not
 322:Drivers/STM32F7xx_HAL_Driver/Inc/stm32f7xx_ll_bus.h ****   * @rmtoll AHB1ENR      GPIOAEN            LL_AHB1_GRP1_IsEnabledClock\n
 323:Drivers/STM32F7xx_HAL_Driver/Inc/stm32f7xx_ll_bus.h ****   *         AHB1ENR      GPIOBEN            LL_AHB1_GRP1_IsEnabledClock\n
 324:Drivers/STM32F7xx_HAL_Driver/Inc/stm32f7xx_ll_bus.h ****   *         AHB1ENR      GPIOCEN            LL_AHB1_GRP1_IsEnabledClock\n
 325:Drivers/STM32F7xx_HAL_Driver/Inc/stm32f7xx_ll_bus.h ****   *         AHB1ENR      GPIODEN            LL_AHB1_GRP1_IsEnabledClock\n
 326:Drivers/STM32F7xx_HAL_Driver/Inc/stm32f7xx_ll_bus.h ****   *         AHB1ENR      GPIOEEN            LL_AHB1_GRP1_IsEnabledClock\n
 327:Drivers/STM32F7xx_HAL_Driver/Inc/stm32f7xx_ll_bus.h ****   *         AHB1ENR      GPIOFEN            LL_AHB1_GRP1_IsEnabledClock\n
 328:Drivers/STM32F7xx_HAL_Driver/Inc/stm32f7xx_ll_bus.h ****   *         AHB1ENR      GPIOGEN            LL_AHB1_GRP1_IsEnabledClock\n
 329:Drivers/STM32F7xx_HAL_Driver/Inc/stm32f7xx_ll_bus.h ****   *         AHB1ENR      GPIOHEN            LL_AHB1_GRP1_IsEnabledClock\n
 330:Drivers/STM32F7xx_HAL_Driver/Inc/stm32f7xx_ll_bus.h ****   *         AHB1ENR      GPIOIEN            LL_AHB1_GRP1_IsEnabledClock\n
ARM GAS  C:\Users\Giorgio\AppData\Local\Temp\ccg7jKJX.s 			page 24


 331:Drivers/STM32F7xx_HAL_Driver/Inc/stm32f7xx_ll_bus.h ****   *         AHB1ENR      GPIOJEN            LL_AHB1_GRP1_IsEnabledClock\n
 332:Drivers/STM32F7xx_HAL_Driver/Inc/stm32f7xx_ll_bus.h ****   *         AHB1ENR      GPIOKEN            LL_AHB1_GRP1_IsEnabledClock\n
 333:Drivers/STM32F7xx_HAL_Driver/Inc/stm32f7xx_ll_bus.h ****   *         AHB1ENR      CRCEN              LL_AHB1_GRP1_IsEnabledClock\n
 334:Drivers/STM32F7xx_HAL_Driver/Inc/stm32f7xx_ll_bus.h ****   *         AHB1ENR      BKPSRAMEN          LL_AHB1_GRP1_IsEnabledClock\n
 335:Drivers/STM32F7xx_HAL_Driver/Inc/stm32f7xx_ll_bus.h ****   *         AHB1ENR      DTCMRAMEN          LL_AHB1_GRP1_IsEnabledClock\n
 336:Drivers/STM32F7xx_HAL_Driver/Inc/stm32f7xx_ll_bus.h ****   *         AHB1ENR      DMA1EN             LL_AHB1_GRP1_IsEnabledClock\n
 337:Drivers/STM32F7xx_HAL_Driver/Inc/stm32f7xx_ll_bus.h ****   *         AHB1ENR      DMA2EN             LL_AHB1_GRP1_IsEnabledClock\n
 338:Drivers/STM32F7xx_HAL_Driver/Inc/stm32f7xx_ll_bus.h ****   *         AHB1ENR      DMA2DEN            LL_AHB1_GRP1_IsEnabledClock\n
 339:Drivers/STM32F7xx_HAL_Driver/Inc/stm32f7xx_ll_bus.h ****   *         AHB1ENR      ETHMACEN           LL_AHB1_GRP1_IsEnabledClock\n
 340:Drivers/STM32F7xx_HAL_Driver/Inc/stm32f7xx_ll_bus.h ****   *         AHB1ENR      ETHMACTXEN         LL_AHB1_GRP1_IsEnabledClock\n
 341:Drivers/STM32F7xx_HAL_Driver/Inc/stm32f7xx_ll_bus.h ****   *         AHB1ENR      ETHMACRXEN         LL_AHB1_GRP1_IsEnabledClock\n
 342:Drivers/STM32F7xx_HAL_Driver/Inc/stm32f7xx_ll_bus.h ****   *         AHB1ENR      ETHMACPTPEN        LL_AHB1_GRP1_IsEnabledClock\n
 343:Drivers/STM32F7xx_HAL_Driver/Inc/stm32f7xx_ll_bus.h ****   *         AHB1ENR      OTGHSEN            LL_AHB1_GRP1_IsEnabledClock\n
 344:Drivers/STM32F7xx_HAL_Driver/Inc/stm32f7xx_ll_bus.h ****   *         AHB1ENR      OTGHSULPIENDEN     LL_AHB1_GRP1_IsEnabledClock
 345:Drivers/STM32F7xx_HAL_Driver/Inc/stm32f7xx_ll_bus.h ****   * @param  Periphs This parameter can be a combination of the following values:
 346:Drivers/STM32F7xx_HAL_Driver/Inc/stm32f7xx_ll_bus.h ****   *         @arg @ref LL_AHB1_GRP1_PERIPH_GPIOA
 347:Drivers/STM32F7xx_HAL_Driver/Inc/stm32f7xx_ll_bus.h ****   *         @arg @ref LL_AHB1_GRP1_PERIPH_GPIOB
 348:Drivers/STM32F7xx_HAL_Driver/Inc/stm32f7xx_ll_bus.h ****   *         @arg @ref LL_AHB1_GRP1_PERIPH_GPIOC
 349:Drivers/STM32F7xx_HAL_Driver/Inc/stm32f7xx_ll_bus.h ****   *         @arg @ref LL_AHB1_GRP1_PERIPH_GPIOD
 350:Drivers/STM32F7xx_HAL_Driver/Inc/stm32f7xx_ll_bus.h ****   *         @arg @ref LL_AHB1_GRP1_PERIPH_GPIOE
 351:Drivers/STM32F7xx_HAL_Driver/Inc/stm32f7xx_ll_bus.h ****   *         @arg @ref LL_AHB1_GRP1_PERIPH_GPIOF
 352:Drivers/STM32F7xx_HAL_Driver/Inc/stm32f7xx_ll_bus.h ****   *         @arg @ref LL_AHB1_GRP1_PERIPH_GPIOG
 353:Drivers/STM32F7xx_HAL_Driver/Inc/stm32f7xx_ll_bus.h ****   *         @arg @ref LL_AHB1_GRP1_PERIPH_GPIOH
 354:Drivers/STM32F7xx_HAL_Driver/Inc/stm32f7xx_ll_bus.h ****   *         @arg @ref LL_AHB1_GRP1_PERIPH_GPIOI
 355:Drivers/STM32F7xx_HAL_Driver/Inc/stm32f7xx_ll_bus.h ****   *         @arg @ref LL_AHB1_GRP1_PERIPH_GPIOJ (*)
 356:Drivers/STM32F7xx_HAL_Driver/Inc/stm32f7xx_ll_bus.h ****   *         @arg @ref LL_AHB1_GRP1_PERIPH_GPIOK (*)
 357:Drivers/STM32F7xx_HAL_Driver/Inc/stm32f7xx_ll_bus.h ****   *         @arg @ref LL_AHB1_GRP1_PERIPH_CRC
 358:Drivers/STM32F7xx_HAL_Driver/Inc/stm32f7xx_ll_bus.h ****   *         @arg @ref LL_AHB1_GRP1_PERIPH_BKPSRAM
 359:Drivers/STM32F7xx_HAL_Driver/Inc/stm32f7xx_ll_bus.h ****   *         @arg @ref LL_AHB1_GRP1_PERIPH_DTCMRAM
 360:Drivers/STM32F7xx_HAL_Driver/Inc/stm32f7xx_ll_bus.h ****   *         @arg @ref LL_AHB1_GRP1_PERIPH_DMA1
 361:Drivers/STM32F7xx_HAL_Driver/Inc/stm32f7xx_ll_bus.h ****   *         @arg @ref LL_AHB1_GRP1_PERIPH_DMA2
 362:Drivers/STM32F7xx_HAL_Driver/Inc/stm32f7xx_ll_bus.h ****   *         @arg @ref LL_AHB1_GRP1_PERIPH_DMA2D (*)
 363:Drivers/STM32F7xx_HAL_Driver/Inc/stm32f7xx_ll_bus.h ****   *         @arg @ref LL_AHB1_GRP1_PERIPH_ETHMAC (*)
 364:Drivers/STM32F7xx_HAL_Driver/Inc/stm32f7xx_ll_bus.h ****   *         @arg @ref LL_AHB1_GRP1_PERIPH_ETHMACTX (*)
 365:Drivers/STM32F7xx_HAL_Driver/Inc/stm32f7xx_ll_bus.h ****   *         @arg @ref LL_AHB1_GRP1_PERIPH_ETHMACRX (*)
 366:Drivers/STM32F7xx_HAL_Driver/Inc/stm32f7xx_ll_bus.h ****   *         @arg @ref LL_AHB1_GRP1_PERIPH_ETHMACPTP (*)
 367:Drivers/STM32F7xx_HAL_Driver/Inc/stm32f7xx_ll_bus.h ****   *         @arg @ref LL_AHB1_GRP1_PERIPH_OTGHS
 368:Drivers/STM32F7xx_HAL_Driver/Inc/stm32f7xx_ll_bus.h ****   *         @arg @ref LL_AHB1_GRP1_PERIPH_OTGHSULPI
 369:Drivers/STM32F7xx_HAL_Driver/Inc/stm32f7xx_ll_bus.h ****   *
 370:Drivers/STM32F7xx_HAL_Driver/Inc/stm32f7xx_ll_bus.h ****   *         (*) value not defined in all devices.
 371:Drivers/STM32F7xx_HAL_Driver/Inc/stm32f7xx_ll_bus.h ****   * @retval State of Periphs (1 or 0).
 372:Drivers/STM32F7xx_HAL_Driver/Inc/stm32f7xx_ll_bus.h **** */
 373:Drivers/STM32F7xx_HAL_Driver/Inc/stm32f7xx_ll_bus.h **** __STATIC_INLINE uint32_t LL_AHB1_GRP1_IsEnabledClock(uint32_t Periphs)
 374:Drivers/STM32F7xx_HAL_Driver/Inc/stm32f7xx_ll_bus.h **** {
 375:Drivers/STM32F7xx_HAL_Driver/Inc/stm32f7xx_ll_bus.h ****   return (READ_BIT(RCC->AHB1ENR, Periphs) == Periphs);
 376:Drivers/STM32F7xx_HAL_Driver/Inc/stm32f7xx_ll_bus.h **** }
 377:Drivers/STM32F7xx_HAL_Driver/Inc/stm32f7xx_ll_bus.h **** 
 378:Drivers/STM32F7xx_HAL_Driver/Inc/stm32f7xx_ll_bus.h **** /**
 379:Drivers/STM32F7xx_HAL_Driver/Inc/stm32f7xx_ll_bus.h ****   * @brief  Disable AHB1 peripherals clock.
 380:Drivers/STM32F7xx_HAL_Driver/Inc/stm32f7xx_ll_bus.h ****   * @rmtoll AHB1ENR      GPIOAEN            LL_AHB1_GRP1_DisableClock\n
 381:Drivers/STM32F7xx_HAL_Driver/Inc/stm32f7xx_ll_bus.h ****   *         AHB1ENR      GPIOBEN            LL_AHB1_GRP1_DisableClock\n
 382:Drivers/STM32F7xx_HAL_Driver/Inc/stm32f7xx_ll_bus.h ****   *         AHB1ENR      GPIOCEN            LL_AHB1_GRP1_DisableClock\n
 383:Drivers/STM32F7xx_HAL_Driver/Inc/stm32f7xx_ll_bus.h ****   *         AHB1ENR      GPIODEN            LL_AHB1_GRP1_DisableClock\n
 384:Drivers/STM32F7xx_HAL_Driver/Inc/stm32f7xx_ll_bus.h ****   *         AHB1ENR      GPIOEEN            LL_AHB1_GRP1_DisableClock\n
 385:Drivers/STM32F7xx_HAL_Driver/Inc/stm32f7xx_ll_bus.h ****   *         AHB1ENR      GPIOFEN            LL_AHB1_GRP1_DisableClock\n
 386:Drivers/STM32F7xx_HAL_Driver/Inc/stm32f7xx_ll_bus.h ****   *         AHB1ENR      GPIOGEN            LL_AHB1_GRP1_DisableClock\n
 387:Drivers/STM32F7xx_HAL_Driver/Inc/stm32f7xx_ll_bus.h ****   *         AHB1ENR      GPIOHEN            LL_AHB1_GRP1_DisableClock\n
ARM GAS  C:\Users\Giorgio\AppData\Local\Temp\ccg7jKJX.s 			page 25


 388:Drivers/STM32F7xx_HAL_Driver/Inc/stm32f7xx_ll_bus.h ****   *         AHB1ENR      GPIOIEN            LL_AHB1_GRP1_DisableClock\n
 389:Drivers/STM32F7xx_HAL_Driver/Inc/stm32f7xx_ll_bus.h ****   *         AHB1ENR      GPIOJEN            LL_AHB1_GRP1_DisableClock\n
 390:Drivers/STM32F7xx_HAL_Driver/Inc/stm32f7xx_ll_bus.h ****   *         AHB1ENR      GPIOKEN            LL_AHB1_GRP1_DisableClock\n
 391:Drivers/STM32F7xx_HAL_Driver/Inc/stm32f7xx_ll_bus.h ****   *         AHB1ENR      CRCEN              LL_AHB1_GRP1_DisableClock\n
 392:Drivers/STM32F7xx_HAL_Driver/Inc/stm32f7xx_ll_bus.h ****   *         AHB1ENR      BKPSRAMEN          LL_AHB1_GRP1_DisableClock\n
 393:Drivers/STM32F7xx_HAL_Driver/Inc/stm32f7xx_ll_bus.h ****   *         AHB1ENR      DTCMRAMEN          LL_AHB1_GRP1_DisableClock\n
 394:Drivers/STM32F7xx_HAL_Driver/Inc/stm32f7xx_ll_bus.h ****   *         AHB1ENR      DMA1EN             LL_AHB1_GRP1_DisableClock\n
 395:Drivers/STM32F7xx_HAL_Driver/Inc/stm32f7xx_ll_bus.h ****   *         AHB1ENR      DMA2EN             LL_AHB1_GRP1_DisableClock\n
 396:Drivers/STM32F7xx_HAL_Driver/Inc/stm32f7xx_ll_bus.h ****   *         AHB1ENR      DMA2DEN            LL_AHB1_GRP1_DisableClock\n
 397:Drivers/STM32F7xx_HAL_Driver/Inc/stm32f7xx_ll_bus.h ****   *         AHB1ENR      ETHMACEN           LL_AHB1_GRP1_DisableClock\n
 398:Drivers/STM32F7xx_HAL_Driver/Inc/stm32f7xx_ll_bus.h ****   *         AHB1ENR      ETHMACTXEN         LL_AHB1_GRP1_DisableClock\n
 399:Drivers/STM32F7xx_HAL_Driver/Inc/stm32f7xx_ll_bus.h ****   *         AHB1ENR      ETHMACRXEN         LL_AHB1_GRP1_DisableClock\n
 400:Drivers/STM32F7xx_HAL_Driver/Inc/stm32f7xx_ll_bus.h ****   *         AHB1ENR      ETHMACPTPEN        LL_AHB1_GRP1_DisableClock\n
 401:Drivers/STM32F7xx_HAL_Driver/Inc/stm32f7xx_ll_bus.h ****   *         AHB1ENR      OTGHSEN            LL_AHB1_GRP1_DisableClock\n
 402:Drivers/STM32F7xx_HAL_Driver/Inc/stm32f7xx_ll_bus.h ****   *         AHB1ENR      OTGHSULPIENDEN     LL_AHB1_GRP1_DisableClock
 403:Drivers/STM32F7xx_HAL_Driver/Inc/stm32f7xx_ll_bus.h ****   * @param  Periphs This parameter can be a combination of the following values:
 404:Drivers/STM32F7xx_HAL_Driver/Inc/stm32f7xx_ll_bus.h ****   *         @arg @ref LL_AHB1_GRP1_PERIPH_GPIOA
 405:Drivers/STM32F7xx_HAL_Driver/Inc/stm32f7xx_ll_bus.h ****   *         @arg @ref LL_AHB1_GRP1_PERIPH_GPIOB
 406:Drivers/STM32F7xx_HAL_Driver/Inc/stm32f7xx_ll_bus.h ****   *         @arg @ref LL_AHB1_GRP1_PERIPH_GPIOC
 407:Drivers/STM32F7xx_HAL_Driver/Inc/stm32f7xx_ll_bus.h ****   *         @arg @ref LL_AHB1_GRP1_PERIPH_GPIOD
 408:Drivers/STM32F7xx_HAL_Driver/Inc/stm32f7xx_ll_bus.h ****   *         @arg @ref LL_AHB1_GRP1_PERIPH_GPIOE
 409:Drivers/STM32F7xx_HAL_Driver/Inc/stm32f7xx_ll_bus.h ****   *         @arg @ref LL_AHB1_GRP1_PERIPH_GPIOF
 410:Drivers/STM32F7xx_HAL_Driver/Inc/stm32f7xx_ll_bus.h ****   *         @arg @ref LL_AHB1_GRP1_PERIPH_GPIOG
 411:Drivers/STM32F7xx_HAL_Driver/Inc/stm32f7xx_ll_bus.h ****   *         @arg @ref LL_AHB1_GRP1_PERIPH_GPIOH
 412:Drivers/STM32F7xx_HAL_Driver/Inc/stm32f7xx_ll_bus.h ****   *         @arg @ref LL_AHB1_GRP1_PERIPH_GPIOI
 413:Drivers/STM32F7xx_HAL_Driver/Inc/stm32f7xx_ll_bus.h ****   *         @arg @ref LL_AHB1_GRP1_PERIPH_GPIOJ (*)
 414:Drivers/STM32F7xx_HAL_Driver/Inc/stm32f7xx_ll_bus.h ****   *         @arg @ref LL_AHB1_GRP1_PERIPH_GPIOK (*)
 415:Drivers/STM32F7xx_HAL_Driver/Inc/stm32f7xx_ll_bus.h ****   *         @arg @ref LL_AHB1_GRP1_PERIPH_CRC
 416:Drivers/STM32F7xx_HAL_Driver/Inc/stm32f7xx_ll_bus.h ****   *         @arg @ref LL_AHB1_GRP1_PERIPH_BKPSRAM
 417:Drivers/STM32F7xx_HAL_Driver/Inc/stm32f7xx_ll_bus.h ****   *         @arg @ref LL_AHB1_GRP1_PERIPH_DTCMRAM
 418:Drivers/STM32F7xx_HAL_Driver/Inc/stm32f7xx_ll_bus.h ****   *         @arg @ref LL_AHB1_GRP1_PERIPH_DMA1
 419:Drivers/STM32F7xx_HAL_Driver/Inc/stm32f7xx_ll_bus.h ****   *         @arg @ref LL_AHB1_GRP1_PERIPH_DMA2
 420:Drivers/STM32F7xx_HAL_Driver/Inc/stm32f7xx_ll_bus.h ****   *         @arg @ref LL_AHB1_GRP1_PERIPH_DMA2D (*)
 421:Drivers/STM32F7xx_HAL_Driver/Inc/stm32f7xx_ll_bus.h ****   *         @arg @ref LL_AHB1_GRP1_PERIPH_ETHMAC (*)
 422:Drivers/STM32F7xx_HAL_Driver/Inc/stm32f7xx_ll_bus.h ****   *         @arg @ref LL_AHB1_GRP1_PERIPH_ETHMACTX (*)
 423:Drivers/STM32F7xx_HAL_Driver/Inc/stm32f7xx_ll_bus.h ****   *         @arg @ref LL_AHB1_GRP1_PERIPH_ETHMACRX (*)
 424:Drivers/STM32F7xx_HAL_Driver/Inc/stm32f7xx_ll_bus.h ****   *         @arg @ref LL_AHB1_GRP1_PERIPH_ETHMACPTP (*)
 425:Drivers/STM32F7xx_HAL_Driver/Inc/stm32f7xx_ll_bus.h ****   *         @arg @ref LL_AHB1_GRP1_PERIPH_OTGHS
 426:Drivers/STM32F7xx_HAL_Driver/Inc/stm32f7xx_ll_bus.h ****   *         @arg @ref LL_AHB1_GRP1_PERIPH_OTGHSULPI
 427:Drivers/STM32F7xx_HAL_Driver/Inc/stm32f7xx_ll_bus.h ****   *
 428:Drivers/STM32F7xx_HAL_Driver/Inc/stm32f7xx_ll_bus.h ****   *         (*) value not defined in all devices.
 429:Drivers/STM32F7xx_HAL_Driver/Inc/stm32f7xx_ll_bus.h ****   * @retval None
 430:Drivers/STM32F7xx_HAL_Driver/Inc/stm32f7xx_ll_bus.h **** */
 431:Drivers/STM32F7xx_HAL_Driver/Inc/stm32f7xx_ll_bus.h **** __STATIC_INLINE void LL_AHB1_GRP1_DisableClock(uint32_t Periphs)
 432:Drivers/STM32F7xx_HAL_Driver/Inc/stm32f7xx_ll_bus.h **** {
 433:Drivers/STM32F7xx_HAL_Driver/Inc/stm32f7xx_ll_bus.h ****   CLEAR_BIT(RCC->AHB1ENR, Periphs);
 434:Drivers/STM32F7xx_HAL_Driver/Inc/stm32f7xx_ll_bus.h **** }
 435:Drivers/STM32F7xx_HAL_Driver/Inc/stm32f7xx_ll_bus.h **** 
 436:Drivers/STM32F7xx_HAL_Driver/Inc/stm32f7xx_ll_bus.h **** /**
 437:Drivers/STM32F7xx_HAL_Driver/Inc/stm32f7xx_ll_bus.h ****   * @brief  Force AHB1 peripherals reset.
 438:Drivers/STM32F7xx_HAL_Driver/Inc/stm32f7xx_ll_bus.h ****   * @rmtoll AHB1RSTR     GPIOARST      LL_AHB1_GRP1_ForceReset\n
 439:Drivers/STM32F7xx_HAL_Driver/Inc/stm32f7xx_ll_bus.h ****   *         AHB1RSTR     GPIOBRST      LL_AHB1_GRP1_ForceReset\n
 440:Drivers/STM32F7xx_HAL_Driver/Inc/stm32f7xx_ll_bus.h ****   *         AHB1RSTR     GPIOCRST      LL_AHB1_GRP1_ForceReset\n
 441:Drivers/STM32F7xx_HAL_Driver/Inc/stm32f7xx_ll_bus.h ****   *         AHB1RSTR     GPIODRST      LL_AHB1_GRP1_ForceReset\n
 442:Drivers/STM32F7xx_HAL_Driver/Inc/stm32f7xx_ll_bus.h ****   *         AHB1RSTR     GPIOERST      LL_AHB1_GRP1_ForceReset\n
 443:Drivers/STM32F7xx_HAL_Driver/Inc/stm32f7xx_ll_bus.h ****   *         AHB1RSTR     GPIOFRST      LL_AHB1_GRP1_ForceReset\n
 444:Drivers/STM32F7xx_HAL_Driver/Inc/stm32f7xx_ll_bus.h ****   *         AHB1RSTR     GPIOGRST      LL_AHB1_GRP1_ForceReset\n
ARM GAS  C:\Users\Giorgio\AppData\Local\Temp\ccg7jKJX.s 			page 26


 445:Drivers/STM32F7xx_HAL_Driver/Inc/stm32f7xx_ll_bus.h ****   *         AHB1RSTR     GPIOHRST      LL_AHB1_GRP1_ForceReset\n
 446:Drivers/STM32F7xx_HAL_Driver/Inc/stm32f7xx_ll_bus.h ****   *         AHB1RSTR     GPIOIRST      LL_AHB1_GRP1_ForceReset\n
 447:Drivers/STM32F7xx_HAL_Driver/Inc/stm32f7xx_ll_bus.h ****   *         AHB1RSTR     GPIOJRST      LL_AHB1_GRP1_ForceReset\n
 448:Drivers/STM32F7xx_HAL_Driver/Inc/stm32f7xx_ll_bus.h ****   *         AHB1RSTR     GPIOKRST      LL_AHB1_GRP1_ForceReset\n
 449:Drivers/STM32F7xx_HAL_Driver/Inc/stm32f7xx_ll_bus.h ****   *         AHB1RSTR     CRCRST        LL_AHB1_GRP1_ForceReset\n
 450:Drivers/STM32F7xx_HAL_Driver/Inc/stm32f7xx_ll_bus.h ****   *         AHB1RSTR     DMA1RST       LL_AHB1_GRP1_ForceReset\n
 451:Drivers/STM32F7xx_HAL_Driver/Inc/stm32f7xx_ll_bus.h ****   *         AHB1RSTR     DMA2RST       LL_AHB1_GRP1_ForceReset\n
 452:Drivers/STM32F7xx_HAL_Driver/Inc/stm32f7xx_ll_bus.h ****   *         AHB1RSTR     DMA2DRST      LL_AHB1_GRP1_ForceReset\n
 453:Drivers/STM32F7xx_HAL_Driver/Inc/stm32f7xx_ll_bus.h ****   *         AHB1RSTR     ETHMACRST     LL_AHB1_GRP1_ForceReset\n
 454:Drivers/STM32F7xx_HAL_Driver/Inc/stm32f7xx_ll_bus.h ****   *         AHB1RSTR     OTGHSRST      LL_AHB1_GRP1_ForceReset
 455:Drivers/STM32F7xx_HAL_Driver/Inc/stm32f7xx_ll_bus.h ****   * @param  Periphs This parameter can be a combination of the following values:
 456:Drivers/STM32F7xx_HAL_Driver/Inc/stm32f7xx_ll_bus.h ****   *         @arg @ref LL_AHB1_GRP1_PERIPH_ALL
 457:Drivers/STM32F7xx_HAL_Driver/Inc/stm32f7xx_ll_bus.h ****   *         @arg @ref LL_AHB1_GRP1_PERIPH_GPIOA
 458:Drivers/STM32F7xx_HAL_Driver/Inc/stm32f7xx_ll_bus.h ****   *         @arg @ref LL_AHB1_GRP1_PERIPH_GPIOB
 459:Drivers/STM32F7xx_HAL_Driver/Inc/stm32f7xx_ll_bus.h ****   *         @arg @ref LL_AHB1_GRP1_PERIPH_GPIOC
 460:Drivers/STM32F7xx_HAL_Driver/Inc/stm32f7xx_ll_bus.h ****   *         @arg @ref LL_AHB1_GRP1_PERIPH_GPIOD
 461:Drivers/STM32F7xx_HAL_Driver/Inc/stm32f7xx_ll_bus.h ****   *         @arg @ref LL_AHB1_GRP1_PERIPH_GPIOE
 462:Drivers/STM32F7xx_HAL_Driver/Inc/stm32f7xx_ll_bus.h ****   *         @arg @ref LL_AHB1_GRP1_PERIPH_GPIOF
 463:Drivers/STM32F7xx_HAL_Driver/Inc/stm32f7xx_ll_bus.h ****   *         @arg @ref LL_AHB1_GRP1_PERIPH_GPIOG
 464:Drivers/STM32F7xx_HAL_Driver/Inc/stm32f7xx_ll_bus.h ****   *         @arg @ref LL_AHB1_GRP1_PERIPH_GPIOH
 465:Drivers/STM32F7xx_HAL_Driver/Inc/stm32f7xx_ll_bus.h ****   *         @arg @ref LL_AHB1_GRP1_PERIPH_GPIOI
 466:Drivers/STM32F7xx_HAL_Driver/Inc/stm32f7xx_ll_bus.h ****   *         @arg @ref LL_AHB1_GRP1_PERIPH_GPIOJ (*)
 467:Drivers/STM32F7xx_HAL_Driver/Inc/stm32f7xx_ll_bus.h ****   *         @arg @ref LL_AHB1_GRP1_PERIPH_GPIOK (*)
 468:Drivers/STM32F7xx_HAL_Driver/Inc/stm32f7xx_ll_bus.h ****   *         @arg @ref LL_AHB1_GRP1_PERIPH_CRC
 469:Drivers/STM32F7xx_HAL_Driver/Inc/stm32f7xx_ll_bus.h ****   *         @arg @ref LL_AHB1_GRP1_PERIPH_DMA1
 470:Drivers/STM32F7xx_HAL_Driver/Inc/stm32f7xx_ll_bus.h ****   *         @arg @ref LL_AHB1_GRP1_PERIPH_DMA2
 471:Drivers/STM32F7xx_HAL_Driver/Inc/stm32f7xx_ll_bus.h ****   *         @arg @ref LL_AHB1_GRP1_PERIPH_DMA2D (*)
 472:Drivers/STM32F7xx_HAL_Driver/Inc/stm32f7xx_ll_bus.h ****   *         @arg @ref LL_AHB1_GRP1_PERIPH_ETHMAC (*)
 473:Drivers/STM32F7xx_HAL_Driver/Inc/stm32f7xx_ll_bus.h ****   *         @arg @ref LL_AHB1_GRP1_PERIPH_OTGHS
 474:Drivers/STM32F7xx_HAL_Driver/Inc/stm32f7xx_ll_bus.h ****   *
 475:Drivers/STM32F7xx_HAL_Driver/Inc/stm32f7xx_ll_bus.h ****   *         (*) value not defined in all devices.
 476:Drivers/STM32F7xx_HAL_Driver/Inc/stm32f7xx_ll_bus.h ****   * @retval None
 477:Drivers/STM32F7xx_HAL_Driver/Inc/stm32f7xx_ll_bus.h **** */
 478:Drivers/STM32F7xx_HAL_Driver/Inc/stm32f7xx_ll_bus.h **** __STATIC_INLINE void LL_AHB1_GRP1_ForceReset(uint32_t Periphs)
 172              		.loc 3 478 22 view .LVU37
 173              	.LBB33:
 479:Drivers/STM32F7xx_HAL_Driver/Inc/stm32f7xx_ll_bus.h **** {
 480:Drivers/STM32F7xx_HAL_Driver/Inc/stm32f7xx_ll_bus.h ****   SET_BIT(RCC->AHB1RSTR, Periphs);
 174              		.loc 3 480 3 view .LVU38
 175 00c8 A3F52053 		sub	r3, r3, #10240
 176 00cc 1A69     		ldr	r2, [r3, #16]
 177 00ce 42F40012 		orr	r2, r2, #2097152
 178 00d2 1A61     		str	r2, [r3, #16]
 179              	.LVL5:
 180              		.loc 3 480 3 is_stmt 0 view .LVU39
 181              	.LBE33:
 182              	.LBE32:
 193:Drivers/STM32F7xx_HAL_Driver/Src/stm32f7xx_ll_dma.c ****     }
 183              		.loc 1 193 7 is_stmt 1 view .LVU40
 184              	.LBB34:
 185              	.LBI34:
 481:Drivers/STM32F7xx_HAL_Driver/Inc/stm32f7xx_ll_bus.h **** }
 482:Drivers/STM32F7xx_HAL_Driver/Inc/stm32f7xx_ll_bus.h **** 
 483:Drivers/STM32F7xx_HAL_Driver/Inc/stm32f7xx_ll_bus.h **** /**
 484:Drivers/STM32F7xx_HAL_Driver/Inc/stm32f7xx_ll_bus.h ****   * @brief  Release AHB1 peripherals reset.
 485:Drivers/STM32F7xx_HAL_Driver/Inc/stm32f7xx_ll_bus.h ****   * @rmtoll AHB1RSTR     GPIOARST      LL_AHB1_GRP1_ReleaseReset\n
 486:Drivers/STM32F7xx_HAL_Driver/Inc/stm32f7xx_ll_bus.h ****   *         AHB1RSTR     GPIOBRST      LL_AHB1_GRP1_ReleaseReset\n
ARM GAS  C:\Users\Giorgio\AppData\Local\Temp\ccg7jKJX.s 			page 27


 487:Drivers/STM32F7xx_HAL_Driver/Inc/stm32f7xx_ll_bus.h ****   *         AHB1RSTR     GPIOCRST      LL_AHB1_GRP1_ReleaseReset\n
 488:Drivers/STM32F7xx_HAL_Driver/Inc/stm32f7xx_ll_bus.h ****   *         AHB1RSTR     GPIODRST      LL_AHB1_GRP1_ReleaseReset\n
 489:Drivers/STM32F7xx_HAL_Driver/Inc/stm32f7xx_ll_bus.h ****   *         AHB1RSTR     GPIOERST      LL_AHB1_GRP1_ReleaseReset\n
 490:Drivers/STM32F7xx_HAL_Driver/Inc/stm32f7xx_ll_bus.h ****   *         AHB1RSTR     GPIOFRST      LL_AHB1_GRP1_ReleaseReset\n
 491:Drivers/STM32F7xx_HAL_Driver/Inc/stm32f7xx_ll_bus.h ****   *         AHB1RSTR     GPIOGRST      LL_AHB1_GRP1_ReleaseReset\n
 492:Drivers/STM32F7xx_HAL_Driver/Inc/stm32f7xx_ll_bus.h ****   *         AHB1RSTR     GPIOHRST      LL_AHB1_GRP1_ReleaseReset\n
 493:Drivers/STM32F7xx_HAL_Driver/Inc/stm32f7xx_ll_bus.h ****   *         AHB1RSTR     GPIOIRST      LL_AHB1_GRP1_ReleaseReset\n
 494:Drivers/STM32F7xx_HAL_Driver/Inc/stm32f7xx_ll_bus.h ****   *         AHB1RSTR     GPIOJRST      LL_AHB1_GRP1_ReleaseReset\n
 495:Drivers/STM32F7xx_HAL_Driver/Inc/stm32f7xx_ll_bus.h ****   *         AHB1RSTR     GPIOKRST      LL_AHB1_GRP1_ReleaseReset\n
 496:Drivers/STM32F7xx_HAL_Driver/Inc/stm32f7xx_ll_bus.h ****   *         AHB1RSTR     CRCRST        LL_AHB1_GRP1_ReleaseReset\n
 497:Drivers/STM32F7xx_HAL_Driver/Inc/stm32f7xx_ll_bus.h ****   *         AHB1RSTR     DMA1RST       LL_AHB1_GRP1_ReleaseReset\n
 498:Drivers/STM32F7xx_HAL_Driver/Inc/stm32f7xx_ll_bus.h ****   *         AHB1RSTR     DMA2RST       LL_AHB1_GRP1_ReleaseReset\n
 499:Drivers/STM32F7xx_HAL_Driver/Inc/stm32f7xx_ll_bus.h ****   *         AHB1RSTR     DMA2DRST      LL_AHB1_GRP1_ReleaseReset\n
 500:Drivers/STM32F7xx_HAL_Driver/Inc/stm32f7xx_ll_bus.h ****   *         AHB1RSTR     ETHMACRST     LL_AHB1_GRP1_ReleaseReset\n
 501:Drivers/STM32F7xx_HAL_Driver/Inc/stm32f7xx_ll_bus.h ****   *         AHB1RSTR     OTGHSRST      LL_AHB1_GRP1_ReleaseReset
 502:Drivers/STM32F7xx_HAL_Driver/Inc/stm32f7xx_ll_bus.h ****   * @param  Periphs This parameter can be a combination of the following values:
 503:Drivers/STM32F7xx_HAL_Driver/Inc/stm32f7xx_ll_bus.h ****   *         @arg @ref LL_AHB1_GRP1_PERIPH_ALL
 504:Drivers/STM32F7xx_HAL_Driver/Inc/stm32f7xx_ll_bus.h ****   *         @arg @ref LL_AHB1_GRP1_PERIPH_GPIOA
 505:Drivers/STM32F7xx_HAL_Driver/Inc/stm32f7xx_ll_bus.h ****   *         @arg @ref LL_AHB1_GRP1_PERIPH_GPIOB
 506:Drivers/STM32F7xx_HAL_Driver/Inc/stm32f7xx_ll_bus.h ****   *         @arg @ref LL_AHB1_GRP1_PERIPH_GPIOC
 507:Drivers/STM32F7xx_HAL_Driver/Inc/stm32f7xx_ll_bus.h ****   *         @arg @ref LL_AHB1_GRP1_PERIPH_GPIOD
 508:Drivers/STM32F7xx_HAL_Driver/Inc/stm32f7xx_ll_bus.h ****   *         @arg @ref LL_AHB1_GRP1_PERIPH_GPIOE
 509:Drivers/STM32F7xx_HAL_Driver/Inc/stm32f7xx_ll_bus.h ****   *         @arg @ref LL_AHB1_GRP1_PERIPH_GPIOF
 510:Drivers/STM32F7xx_HAL_Driver/Inc/stm32f7xx_ll_bus.h ****   *         @arg @ref LL_AHB1_GRP1_PERIPH_GPIOG
 511:Drivers/STM32F7xx_HAL_Driver/Inc/stm32f7xx_ll_bus.h ****   *         @arg @ref LL_AHB1_GRP1_PERIPH_GPIOH
 512:Drivers/STM32F7xx_HAL_Driver/Inc/stm32f7xx_ll_bus.h ****   *         @arg @ref LL_AHB1_GRP1_PERIPH_GPIOI
 513:Drivers/STM32F7xx_HAL_Driver/Inc/stm32f7xx_ll_bus.h ****   *         @arg @ref LL_AHB1_GRP1_PERIPH_GPIOJ (*)
 514:Drivers/STM32F7xx_HAL_Driver/Inc/stm32f7xx_ll_bus.h ****   *         @arg @ref LL_AHB1_GRP1_PERIPH_GPIOK (*)
 515:Drivers/STM32F7xx_HAL_Driver/Inc/stm32f7xx_ll_bus.h ****   *         @arg @ref LL_AHB1_GRP1_PERIPH_CRC
 516:Drivers/STM32F7xx_HAL_Driver/Inc/stm32f7xx_ll_bus.h ****   *         @arg @ref LL_AHB1_GRP1_PERIPH_DMA1
 517:Drivers/STM32F7xx_HAL_Driver/Inc/stm32f7xx_ll_bus.h ****   *         @arg @ref LL_AHB1_GRP1_PERIPH_DMA2
 518:Drivers/STM32F7xx_HAL_Driver/Inc/stm32f7xx_ll_bus.h ****   *         @arg @ref LL_AHB1_GRP1_PERIPH_DMA2D (*)
 519:Drivers/STM32F7xx_HAL_Driver/Inc/stm32f7xx_ll_bus.h ****   *         @arg @ref LL_AHB1_GRP1_PERIPH_ETHMAC (*)
 520:Drivers/STM32F7xx_HAL_Driver/Inc/stm32f7xx_ll_bus.h ****   *         @arg @ref LL_AHB1_GRP1_PERIPH_OTGHS
 521:Drivers/STM32F7xx_HAL_Driver/Inc/stm32f7xx_ll_bus.h ****   *
 522:Drivers/STM32F7xx_HAL_Driver/Inc/stm32f7xx_ll_bus.h ****   *         (*) value not defined in all devices.
 523:Drivers/STM32F7xx_HAL_Driver/Inc/stm32f7xx_ll_bus.h ****   * @retval None
 524:Drivers/STM32F7xx_HAL_Driver/Inc/stm32f7xx_ll_bus.h **** */
 525:Drivers/STM32F7xx_HAL_Driver/Inc/stm32f7xx_ll_bus.h **** __STATIC_INLINE void LL_AHB1_GRP1_ReleaseReset(uint32_t Periphs)
 186              		.loc 3 525 22 view .LVU41
 187              	.LBB35:
 526:Drivers/STM32F7xx_HAL_Driver/Inc/stm32f7xx_ll_bus.h **** {
 527:Drivers/STM32F7xx_HAL_Driver/Inc/stm32f7xx_ll_bus.h ****   CLEAR_BIT(RCC->AHB1RSTR, Periphs);
 188              		.loc 3 527 3 view .LVU42
 189 00d4 1A69     		ldr	r2, [r3, #16]
 190 00d6 22F40012 		bic	r2, r2, #2097152
 191 00da 1A61     		str	r2, [r3, #16]
 192              	.LBE35:
 193              	.LBE34:
 180:Drivers/STM32F7xx_HAL_Driver/Src/stm32f7xx_ll_dma.c **** 
 194              		.loc 1 180 15 is_stmt 0 view .LVU43
 195 00dc 0020     		movs	r0, #0
 196              	.LVL6:
 197              	.LBB37:
 198              	.LBB36:
 528:Drivers/STM32F7xx_HAL_Driver/Inc/stm32f7xx_ll_bus.h **** }
 199              		.loc 3 528 1 view .LVU44
ARM GAS  C:\Users\Giorgio\AppData\Local\Temp\ccg7jKJX.s 			page 28


 200 00de 7047     		bx	lr
 201              	.LVL7:
 202              	.L35:
 203              		.loc 3 528 1 view .LVU45
 204              	.LBE36:
 205              	.LBE37:
 198:Drivers/STM32F7xx_HAL_Driver/Src/stm32f7xx_ll_dma.c **** 
 206              		.loc 1 198 7 is_stmt 1 view .LVU46
 207              	.LBB38:
 208              	.LBI38:
 478:Drivers/STM32F7xx_HAL_Driver/Inc/stm32f7xx_ll_bus.h **** {
 209              		.loc 3 478 22 view .LVU47
 210              	.LBB39:
 480:Drivers/STM32F7xx_HAL_Driver/Inc/stm32f7xx_ll_bus.h **** }
 211              		.loc 3 480 3 view .LVU48
 212 00e0 A3F53053 		sub	r3, r3, #11264
 213 00e4 1A69     		ldr	r2, [r3, #16]
 214 00e6 42F48002 		orr	r2, r2, #4194304
 215 00ea 1A61     		str	r2, [r3, #16]
 216              	.LVL8:
 480:Drivers/STM32F7xx_HAL_Driver/Inc/stm32f7xx_ll_bus.h **** }
 217              		.loc 3 480 3 is_stmt 0 view .LVU49
 218              	.LBE39:
 219              	.LBE38:
 201:Drivers/STM32F7xx_HAL_Driver/Src/stm32f7xx_ll_dma.c ****     }
 220              		.loc 1 201 7 is_stmt 1 view .LVU50
 221              	.LBB40:
 222              	.LBI40:
 525:Drivers/STM32F7xx_HAL_Driver/Inc/stm32f7xx_ll_bus.h **** {
 223              		.loc 3 525 22 view .LVU51
 224              	.LBB41:
 527:Drivers/STM32F7xx_HAL_Driver/Inc/stm32f7xx_ll_bus.h **** }
 225              		.loc 3 527 3 view .LVU52
 226 00ec 1A69     		ldr	r2, [r3, #16]
 227 00ee 22F48002 		bic	r2, r2, #4194304
 228 00f2 1A61     		str	r2, [r3, #16]
 229              	.LBE41:
 230              	.LBE40:
 180:Drivers/STM32F7xx_HAL_Driver/Src/stm32f7xx_ll_dma.c **** 
 231              		.loc 1 180 15 is_stmt 0 view .LVU53
 232 00f4 0020     		movs	r0, #0
 233              	.LVL9:
 234              	.LBB43:
 235              	.LBB42:
 236              		.loc 3 528 1 view .LVU54
 237 00f6 7047     		bx	lr
 238              	.LVL10:
 239              	.L14:
 240              	.LCFI2:
 241              		.cfi_def_cfa_offset 8
 242              		.cfi_offset 4, -8
 243              		.cfi_offset 14, -4
 244              		.loc 3 528 1 view .LVU55
 245              	.LBE42:
 246              	.LBE43:
 214:Drivers/STM32F7xx_HAL_Driver/Src/stm32f7xx_ll_dma.c **** 
 247              		.loc 1 214 11 view .LVU56
ARM GAS  C:\Users\Giorgio\AppData\Local\Temp\ccg7jKJX.s 			page 29


 248 00f8 334B     		ldr	r3, .L43+12
 249              	.L5:
 250              	.LVL11:
 217:Drivers/STM32F7xx_HAL_Driver/Src/stm32f7xx_ll_dma.c **** 
 251              		.loc 1 217 5 is_stmt 1 discriminator 60 view .LVU57
 252 00fa 0022     		movs	r2, #0
 253 00fc 1A60     		str	r2, [r3]
 220:Drivers/STM32F7xx_HAL_Driver/Src/stm32f7xx_ll_dma.c **** 
 254              		.loc 1 220 5 discriminator 60 view .LVU58
 255 00fe 5A60     		str	r2, [r3, #4]
 223:Drivers/STM32F7xx_HAL_Driver/Src/stm32f7xx_ll_dma.c **** 
 256              		.loc 1 223 5 discriminator 60 view .LVU59
 257 0100 9A60     		str	r2, [r3, #8]
 226:Drivers/STM32F7xx_HAL_Driver/Src/stm32f7xx_ll_dma.c **** 
 258              		.loc 1 226 5 discriminator 60 view .LVU60
 259 0102 DA60     		str	r2, [r3, #12]
 229:Drivers/STM32F7xx_HAL_Driver/Src/stm32f7xx_ll_dma.c **** 
 260              		.loc 1 229 5 discriminator 60 view .LVU61
 261 0104 1A61     		str	r2, [r3, #16]
 232:Drivers/STM32F7xx_HAL_Driver/Src/stm32f7xx_ll_dma.c **** 
 262              		.loc 1 232 5 discriminator 60 view .LVU62
 263 0106 2122     		movs	r2, #33
 264 0108 5A61     		str	r2, [r3, #20]
 235:Drivers/STM32F7xx_HAL_Driver/Src/stm32f7xx_ll_dma.c **** 
 265              		.loc 1 235 5 discriminator 60 view .LVU63
 266              	.LVL12:
 267              	.LBB44:
 268              	.LBI44:
 521:Drivers/STM32F7xx_HAL_Driver/Inc/stm32f7xx_ll_dma.h **** }
 522:Drivers/STM32F7xx_HAL_Driver/Inc/stm32f7xx_ll_dma.h **** 
 523:Drivers/STM32F7xx_HAL_Driver/Inc/stm32f7xx_ll_dma.h **** /**
 524:Drivers/STM32F7xx_HAL_Driver/Inc/stm32f7xx_ll_dma.h ****   * @brief Check if DMA stream is enabled or disabled.
 525:Drivers/STM32F7xx_HAL_Driver/Inc/stm32f7xx_ll_dma.h ****   * @rmtoll CR          EN            LL_DMA_IsEnabledStream
 526:Drivers/STM32F7xx_HAL_Driver/Inc/stm32f7xx_ll_dma.h ****   * @param  DMAx DMAx Instance
 527:Drivers/STM32F7xx_HAL_Driver/Inc/stm32f7xx_ll_dma.h ****   * @param  Stream This parameter can be one of the following values:
 528:Drivers/STM32F7xx_HAL_Driver/Inc/stm32f7xx_ll_dma.h ****   *         @arg @ref LL_DMA_STREAM_0
 529:Drivers/STM32F7xx_HAL_Driver/Inc/stm32f7xx_ll_dma.h ****   *         @arg @ref LL_DMA_STREAM_1
 530:Drivers/STM32F7xx_HAL_Driver/Inc/stm32f7xx_ll_dma.h ****   *         @arg @ref LL_DMA_STREAM_2
 531:Drivers/STM32F7xx_HAL_Driver/Inc/stm32f7xx_ll_dma.h ****   *         @arg @ref LL_DMA_STREAM_3
 532:Drivers/STM32F7xx_HAL_Driver/Inc/stm32f7xx_ll_dma.h ****   *         @arg @ref LL_DMA_STREAM_4
 533:Drivers/STM32F7xx_HAL_Driver/Inc/stm32f7xx_ll_dma.h ****   *         @arg @ref LL_DMA_STREAM_5
 534:Drivers/STM32F7xx_HAL_Driver/Inc/stm32f7xx_ll_dma.h ****   *         @arg @ref LL_DMA_STREAM_6
 535:Drivers/STM32F7xx_HAL_Driver/Inc/stm32f7xx_ll_dma.h ****   *         @arg @ref LL_DMA_STREAM_7
 536:Drivers/STM32F7xx_HAL_Driver/Inc/stm32f7xx_ll_dma.h ****   * @retval State of bit (1 or 0).
 537:Drivers/STM32F7xx_HAL_Driver/Inc/stm32f7xx_ll_dma.h ****   */
 538:Drivers/STM32F7xx_HAL_Driver/Inc/stm32f7xx_ll_dma.h **** __STATIC_INLINE uint32_t LL_DMA_IsEnabledStream(DMA_TypeDef *DMAx, uint32_t Stream)
 539:Drivers/STM32F7xx_HAL_Driver/Inc/stm32f7xx_ll_dma.h **** {
 540:Drivers/STM32F7xx_HAL_Driver/Inc/stm32f7xx_ll_dma.h ****   return (READ_BIT(((DMA_Stream_TypeDef*)((uint32_t)((uint32_t)DMAx + STREAM_OFFSET_TAB[Stream])))-
 541:Drivers/STM32F7xx_HAL_Driver/Inc/stm32f7xx_ll_dma.h **** }
 542:Drivers/STM32F7xx_HAL_Driver/Inc/stm32f7xx_ll_dma.h **** 
 543:Drivers/STM32F7xx_HAL_Driver/Inc/stm32f7xx_ll_dma.h **** /**
 544:Drivers/STM32F7xx_HAL_Driver/Inc/stm32f7xx_ll_dma.h ****   * @brief  Configure all parameters linked to DMA transfer.
 545:Drivers/STM32F7xx_HAL_Driver/Inc/stm32f7xx_ll_dma.h ****   * @rmtoll CR          DIR           LL_DMA_ConfigTransfer\n
 546:Drivers/STM32F7xx_HAL_Driver/Inc/stm32f7xx_ll_dma.h ****   *         CR          CIRC          LL_DMA_ConfigTransfer\n
 547:Drivers/STM32F7xx_HAL_Driver/Inc/stm32f7xx_ll_dma.h ****   *         CR          PINC          LL_DMA_ConfigTransfer\n
 548:Drivers/STM32F7xx_HAL_Driver/Inc/stm32f7xx_ll_dma.h ****   *         CR          MINC          LL_DMA_ConfigTransfer\n
 549:Drivers/STM32F7xx_HAL_Driver/Inc/stm32f7xx_ll_dma.h ****   *         CR          PSIZE         LL_DMA_ConfigTransfer\n
ARM GAS  C:\Users\Giorgio\AppData\Local\Temp\ccg7jKJX.s 			page 30


 550:Drivers/STM32F7xx_HAL_Driver/Inc/stm32f7xx_ll_dma.h ****   *         CR          MSIZE         LL_DMA_ConfigTransfer\n
 551:Drivers/STM32F7xx_HAL_Driver/Inc/stm32f7xx_ll_dma.h ****   *         CR          PL            LL_DMA_ConfigTransfer\n
 552:Drivers/STM32F7xx_HAL_Driver/Inc/stm32f7xx_ll_dma.h ****   *         CR          PFCTRL        LL_DMA_ConfigTransfer
 553:Drivers/STM32F7xx_HAL_Driver/Inc/stm32f7xx_ll_dma.h ****   * @param  DMAx DMAx Instance
 554:Drivers/STM32F7xx_HAL_Driver/Inc/stm32f7xx_ll_dma.h ****   * @param  Stream This parameter can be one of the following values:
 555:Drivers/STM32F7xx_HAL_Driver/Inc/stm32f7xx_ll_dma.h ****   *         @arg @ref LL_DMA_STREAM_0
 556:Drivers/STM32F7xx_HAL_Driver/Inc/stm32f7xx_ll_dma.h ****   *         @arg @ref LL_DMA_STREAM_1
 557:Drivers/STM32F7xx_HAL_Driver/Inc/stm32f7xx_ll_dma.h ****   *         @arg @ref LL_DMA_STREAM_2
 558:Drivers/STM32F7xx_HAL_Driver/Inc/stm32f7xx_ll_dma.h ****   *         @arg @ref LL_DMA_STREAM_3
 559:Drivers/STM32F7xx_HAL_Driver/Inc/stm32f7xx_ll_dma.h ****   *         @arg @ref LL_DMA_STREAM_4
 560:Drivers/STM32F7xx_HAL_Driver/Inc/stm32f7xx_ll_dma.h ****   *         @arg @ref LL_DMA_STREAM_5
 561:Drivers/STM32F7xx_HAL_Driver/Inc/stm32f7xx_ll_dma.h ****   *         @arg @ref LL_DMA_STREAM_6
 562:Drivers/STM32F7xx_HAL_Driver/Inc/stm32f7xx_ll_dma.h ****   *         @arg @ref LL_DMA_STREAM_7
 563:Drivers/STM32F7xx_HAL_Driver/Inc/stm32f7xx_ll_dma.h ****   * @param  Configuration This parameter must be a combination of all the following values:
 564:Drivers/STM32F7xx_HAL_Driver/Inc/stm32f7xx_ll_dma.h ****   *         @arg @ref LL_DMA_DIRECTION_PERIPH_TO_MEMORY or @ref LL_DMA_DIRECTION_MEMORY_TO_PERIPH o
 565:Drivers/STM32F7xx_HAL_Driver/Inc/stm32f7xx_ll_dma.h ****   *         @arg @ref LL_DMA_MODE_NORMAL or @ref LL_DMA_MODE_CIRCULAR  or @ref LL_DMA_MODE_PFCTRL
 566:Drivers/STM32F7xx_HAL_Driver/Inc/stm32f7xx_ll_dma.h ****   *         @arg @ref LL_DMA_PERIPH_INCREMENT or @ref LL_DMA_PERIPH_NOINCREMENT
 567:Drivers/STM32F7xx_HAL_Driver/Inc/stm32f7xx_ll_dma.h ****   *         @arg @ref LL_DMA_MEMORY_INCREMENT or @ref LL_DMA_MEMORY_NOINCREMENT
 568:Drivers/STM32F7xx_HAL_Driver/Inc/stm32f7xx_ll_dma.h ****   *         @arg @ref LL_DMA_PDATAALIGN_BYTE or @ref LL_DMA_PDATAALIGN_HALFWORD or @ref LL_DMA_PDAT
 569:Drivers/STM32F7xx_HAL_Driver/Inc/stm32f7xx_ll_dma.h ****   *         @arg @ref LL_DMA_MDATAALIGN_BYTE or @ref LL_DMA_MDATAALIGN_HALFWORD or @ref LL_DMA_MDAT
 570:Drivers/STM32F7xx_HAL_Driver/Inc/stm32f7xx_ll_dma.h ****   *         @arg @ref LL_DMA_PRIORITY_LOW or @ref LL_DMA_PRIORITY_MEDIUM or @ref LL_DMA_PRIORITY_HI
 571:Drivers/STM32F7xx_HAL_Driver/Inc/stm32f7xx_ll_dma.h ****   *@retval None
 572:Drivers/STM32F7xx_HAL_Driver/Inc/stm32f7xx_ll_dma.h ****   */
 573:Drivers/STM32F7xx_HAL_Driver/Inc/stm32f7xx_ll_dma.h **** __STATIC_INLINE void LL_DMA_ConfigTransfer(DMA_TypeDef *DMAx, uint32_t Stream, uint32_t Configurati
 574:Drivers/STM32F7xx_HAL_Driver/Inc/stm32f7xx_ll_dma.h **** {
 575:Drivers/STM32F7xx_HAL_Driver/Inc/stm32f7xx_ll_dma.h ****   MODIFY_REG(((DMA_Stream_TypeDef *)((uint32_t)((uint32_t)DMAx + STREAM_OFFSET_TAB[Stream])))->CR,
 576:Drivers/STM32F7xx_HAL_Driver/Inc/stm32f7xx_ll_dma.h ****              DMA_SxCR_DIR | DMA_SxCR_CIRC | DMA_SxCR_PINC | DMA_SxCR_MINC | DMA_SxCR_PSIZE | DMA_Sx
 577:Drivers/STM32F7xx_HAL_Driver/Inc/stm32f7xx_ll_dma.h ****              Configuration);
 578:Drivers/STM32F7xx_HAL_Driver/Inc/stm32f7xx_ll_dma.h **** }
 579:Drivers/STM32F7xx_HAL_Driver/Inc/stm32f7xx_ll_dma.h **** 
 580:Drivers/STM32F7xx_HAL_Driver/Inc/stm32f7xx_ll_dma.h **** /**
 581:Drivers/STM32F7xx_HAL_Driver/Inc/stm32f7xx_ll_dma.h ****   * @brief Set Data transfer direction (read from peripheral or from memory).
 582:Drivers/STM32F7xx_HAL_Driver/Inc/stm32f7xx_ll_dma.h ****   * @rmtoll CR          DIR           LL_DMA_SetDataTransferDirection
 583:Drivers/STM32F7xx_HAL_Driver/Inc/stm32f7xx_ll_dma.h ****   * @param  DMAx DMAx Instance
 584:Drivers/STM32F7xx_HAL_Driver/Inc/stm32f7xx_ll_dma.h ****   * @param  Stream This parameter can be one of the following values:
 585:Drivers/STM32F7xx_HAL_Driver/Inc/stm32f7xx_ll_dma.h ****   *         @arg @ref LL_DMA_STREAM_0
 586:Drivers/STM32F7xx_HAL_Driver/Inc/stm32f7xx_ll_dma.h ****   *         @arg @ref LL_DMA_STREAM_1
 587:Drivers/STM32F7xx_HAL_Driver/Inc/stm32f7xx_ll_dma.h ****   *         @arg @ref LL_DMA_STREAM_2
 588:Drivers/STM32F7xx_HAL_Driver/Inc/stm32f7xx_ll_dma.h ****   *         @arg @ref LL_DMA_STREAM_3
 589:Drivers/STM32F7xx_HAL_Driver/Inc/stm32f7xx_ll_dma.h ****   *         @arg @ref LL_DMA_STREAM_4
 590:Drivers/STM32F7xx_HAL_Driver/Inc/stm32f7xx_ll_dma.h ****   *         @arg @ref LL_DMA_STREAM_5
 591:Drivers/STM32F7xx_HAL_Driver/Inc/stm32f7xx_ll_dma.h ****   *         @arg @ref LL_DMA_STREAM_6
 592:Drivers/STM32F7xx_HAL_Driver/Inc/stm32f7xx_ll_dma.h ****   *         @arg @ref LL_DMA_STREAM_7
 593:Drivers/STM32F7xx_HAL_Driver/Inc/stm32f7xx_ll_dma.h ****   * @param  Direction This parameter can be one of the following values:
 594:Drivers/STM32F7xx_HAL_Driver/Inc/stm32f7xx_ll_dma.h ****   *         @arg @ref LL_DMA_DIRECTION_PERIPH_TO_MEMORY
 595:Drivers/STM32F7xx_HAL_Driver/Inc/stm32f7xx_ll_dma.h ****   *         @arg @ref LL_DMA_DIRECTION_MEMORY_TO_PERIPH
 596:Drivers/STM32F7xx_HAL_Driver/Inc/stm32f7xx_ll_dma.h ****   *         @arg @ref LL_DMA_DIRECTION_MEMORY_TO_MEMORY
 597:Drivers/STM32F7xx_HAL_Driver/Inc/stm32f7xx_ll_dma.h ****   * @retval None
 598:Drivers/STM32F7xx_HAL_Driver/Inc/stm32f7xx_ll_dma.h ****   */
 599:Drivers/STM32F7xx_HAL_Driver/Inc/stm32f7xx_ll_dma.h **** __STATIC_INLINE void LL_DMA_SetDataTransferDirection(DMA_TypeDef *DMAx, uint32_t Stream, uint32_t  
 600:Drivers/STM32F7xx_HAL_Driver/Inc/stm32f7xx_ll_dma.h **** {
 601:Drivers/STM32F7xx_HAL_Driver/Inc/stm32f7xx_ll_dma.h ****   MODIFY_REG(((DMA_Stream_TypeDef*)((uint32_t)((uint32_t)DMAx + STREAM_OFFSET_TAB[Stream])))->CR, D
 602:Drivers/STM32F7xx_HAL_Driver/Inc/stm32f7xx_ll_dma.h **** }
 603:Drivers/STM32F7xx_HAL_Driver/Inc/stm32f7xx_ll_dma.h **** 
 604:Drivers/STM32F7xx_HAL_Driver/Inc/stm32f7xx_ll_dma.h **** /**
 605:Drivers/STM32F7xx_HAL_Driver/Inc/stm32f7xx_ll_dma.h ****   * @brief Get Data transfer direction (read from peripheral or from memory).
 606:Drivers/STM32F7xx_HAL_Driver/Inc/stm32f7xx_ll_dma.h ****   * @rmtoll CR          DIR           LL_DMA_GetDataTransferDirection
ARM GAS  C:\Users\Giorgio\AppData\Local\Temp\ccg7jKJX.s 			page 31


 607:Drivers/STM32F7xx_HAL_Driver/Inc/stm32f7xx_ll_dma.h ****   * @param  DMAx DMAx Instance
 608:Drivers/STM32F7xx_HAL_Driver/Inc/stm32f7xx_ll_dma.h ****   * @param  Stream This parameter can be one of the following values:
 609:Drivers/STM32F7xx_HAL_Driver/Inc/stm32f7xx_ll_dma.h ****   *         @arg @ref LL_DMA_STREAM_0
 610:Drivers/STM32F7xx_HAL_Driver/Inc/stm32f7xx_ll_dma.h ****   *         @arg @ref LL_DMA_STREAM_1
 611:Drivers/STM32F7xx_HAL_Driver/Inc/stm32f7xx_ll_dma.h ****   *         @arg @ref LL_DMA_STREAM_2
 612:Drivers/STM32F7xx_HAL_Driver/Inc/stm32f7xx_ll_dma.h ****   *         @arg @ref LL_DMA_STREAM_3
 613:Drivers/STM32F7xx_HAL_Driver/Inc/stm32f7xx_ll_dma.h ****   *         @arg @ref LL_DMA_STREAM_4
 614:Drivers/STM32F7xx_HAL_Driver/Inc/stm32f7xx_ll_dma.h ****   *         @arg @ref LL_DMA_STREAM_5
 615:Drivers/STM32F7xx_HAL_Driver/Inc/stm32f7xx_ll_dma.h ****   *         @arg @ref LL_DMA_STREAM_6
 616:Drivers/STM32F7xx_HAL_Driver/Inc/stm32f7xx_ll_dma.h ****   *         @arg @ref LL_DMA_STREAM_7
 617:Drivers/STM32F7xx_HAL_Driver/Inc/stm32f7xx_ll_dma.h ****   * @retval Returned value can be one of the following values:
 618:Drivers/STM32F7xx_HAL_Driver/Inc/stm32f7xx_ll_dma.h ****   *         @arg @ref LL_DMA_DIRECTION_PERIPH_TO_MEMORY
 619:Drivers/STM32F7xx_HAL_Driver/Inc/stm32f7xx_ll_dma.h ****   *         @arg @ref LL_DMA_DIRECTION_MEMORY_TO_PERIPH
 620:Drivers/STM32F7xx_HAL_Driver/Inc/stm32f7xx_ll_dma.h ****   *         @arg @ref LL_DMA_DIRECTION_MEMORY_TO_MEMORY
 621:Drivers/STM32F7xx_HAL_Driver/Inc/stm32f7xx_ll_dma.h ****   */
 622:Drivers/STM32F7xx_HAL_Driver/Inc/stm32f7xx_ll_dma.h **** __STATIC_INLINE uint32_t LL_DMA_GetDataTransferDirection(DMA_TypeDef *DMAx, uint32_t Stream)
 623:Drivers/STM32F7xx_HAL_Driver/Inc/stm32f7xx_ll_dma.h **** {
 624:Drivers/STM32F7xx_HAL_Driver/Inc/stm32f7xx_ll_dma.h ****   return (READ_BIT(((DMA_Stream_TypeDef*)((uint32_t)((uint32_t)DMAx + STREAM_OFFSET_TAB[Stream])))-
 625:Drivers/STM32F7xx_HAL_Driver/Inc/stm32f7xx_ll_dma.h **** }
 626:Drivers/STM32F7xx_HAL_Driver/Inc/stm32f7xx_ll_dma.h **** 
 627:Drivers/STM32F7xx_HAL_Driver/Inc/stm32f7xx_ll_dma.h **** /**
 628:Drivers/STM32F7xx_HAL_Driver/Inc/stm32f7xx_ll_dma.h ****   * @brief Set DMA mode normal, circular or peripheral flow control.
 629:Drivers/STM32F7xx_HAL_Driver/Inc/stm32f7xx_ll_dma.h ****   * @rmtoll CR          CIRC           LL_DMA_SetMode\n
 630:Drivers/STM32F7xx_HAL_Driver/Inc/stm32f7xx_ll_dma.h ****   *         CR          PFCTRL         LL_DMA_SetMode
 631:Drivers/STM32F7xx_HAL_Driver/Inc/stm32f7xx_ll_dma.h ****   * @param  DMAx DMAx Instance
 632:Drivers/STM32F7xx_HAL_Driver/Inc/stm32f7xx_ll_dma.h ****   * @param  Stream This parameter can be one of the following values:
 633:Drivers/STM32F7xx_HAL_Driver/Inc/stm32f7xx_ll_dma.h ****   *         @arg @ref LL_DMA_STREAM_0
 634:Drivers/STM32F7xx_HAL_Driver/Inc/stm32f7xx_ll_dma.h ****   *         @arg @ref LL_DMA_STREAM_1
 635:Drivers/STM32F7xx_HAL_Driver/Inc/stm32f7xx_ll_dma.h ****   *         @arg @ref LL_DMA_STREAM_2
 636:Drivers/STM32F7xx_HAL_Driver/Inc/stm32f7xx_ll_dma.h ****   *         @arg @ref LL_DMA_STREAM_3
 637:Drivers/STM32F7xx_HAL_Driver/Inc/stm32f7xx_ll_dma.h ****   *         @arg @ref LL_DMA_STREAM_4
 638:Drivers/STM32F7xx_HAL_Driver/Inc/stm32f7xx_ll_dma.h ****   *         @arg @ref LL_DMA_STREAM_5
 639:Drivers/STM32F7xx_HAL_Driver/Inc/stm32f7xx_ll_dma.h ****   *         @arg @ref LL_DMA_STREAM_6
 640:Drivers/STM32F7xx_HAL_Driver/Inc/stm32f7xx_ll_dma.h ****   *         @arg @ref LL_DMA_STREAM_7
 641:Drivers/STM32F7xx_HAL_Driver/Inc/stm32f7xx_ll_dma.h ****   * @param  Mode This parameter can be one of the following values:
 642:Drivers/STM32F7xx_HAL_Driver/Inc/stm32f7xx_ll_dma.h ****   *         @arg @ref LL_DMA_MODE_NORMAL
 643:Drivers/STM32F7xx_HAL_Driver/Inc/stm32f7xx_ll_dma.h ****   *         @arg @ref LL_DMA_MODE_CIRCULAR
 644:Drivers/STM32F7xx_HAL_Driver/Inc/stm32f7xx_ll_dma.h ****   *         @arg @ref LL_DMA_MODE_PFCTRL
 645:Drivers/STM32F7xx_HAL_Driver/Inc/stm32f7xx_ll_dma.h ****   * @retval None
 646:Drivers/STM32F7xx_HAL_Driver/Inc/stm32f7xx_ll_dma.h ****   */
 647:Drivers/STM32F7xx_HAL_Driver/Inc/stm32f7xx_ll_dma.h **** __STATIC_INLINE void LL_DMA_SetMode(DMA_TypeDef *DMAx, uint32_t Stream, uint32_t Mode)
 648:Drivers/STM32F7xx_HAL_Driver/Inc/stm32f7xx_ll_dma.h **** {
 649:Drivers/STM32F7xx_HAL_Driver/Inc/stm32f7xx_ll_dma.h ****   MODIFY_REG(((DMA_Stream_TypeDef*)((uint32_t)((uint32_t)DMAx + STREAM_OFFSET_TAB[Stream])))->CR, D
 650:Drivers/STM32F7xx_HAL_Driver/Inc/stm32f7xx_ll_dma.h **** }
 651:Drivers/STM32F7xx_HAL_Driver/Inc/stm32f7xx_ll_dma.h **** 
 652:Drivers/STM32F7xx_HAL_Driver/Inc/stm32f7xx_ll_dma.h **** /**
 653:Drivers/STM32F7xx_HAL_Driver/Inc/stm32f7xx_ll_dma.h ****   * @brief Get DMA mode normal, circular or peripheral flow control.
 654:Drivers/STM32F7xx_HAL_Driver/Inc/stm32f7xx_ll_dma.h ****   * @rmtoll CR          CIRC           LL_DMA_GetMode\n
 655:Drivers/STM32F7xx_HAL_Driver/Inc/stm32f7xx_ll_dma.h ****   *         CR          PFCTRL         LL_DMA_GetMode
 656:Drivers/STM32F7xx_HAL_Driver/Inc/stm32f7xx_ll_dma.h ****   * @param  DMAx DMAx Instance
 657:Drivers/STM32F7xx_HAL_Driver/Inc/stm32f7xx_ll_dma.h ****   * @param  Stream This parameter can be one of the following values:
 658:Drivers/STM32F7xx_HAL_Driver/Inc/stm32f7xx_ll_dma.h ****   *         @arg @ref LL_DMA_STREAM_0
 659:Drivers/STM32F7xx_HAL_Driver/Inc/stm32f7xx_ll_dma.h ****   *         @arg @ref LL_DMA_STREAM_1
 660:Drivers/STM32F7xx_HAL_Driver/Inc/stm32f7xx_ll_dma.h ****   *         @arg @ref LL_DMA_STREAM_2
 661:Drivers/STM32F7xx_HAL_Driver/Inc/stm32f7xx_ll_dma.h ****   *         @arg @ref LL_DMA_STREAM_3
 662:Drivers/STM32F7xx_HAL_Driver/Inc/stm32f7xx_ll_dma.h ****   *         @arg @ref LL_DMA_STREAM_4
 663:Drivers/STM32F7xx_HAL_Driver/Inc/stm32f7xx_ll_dma.h ****   *         @arg @ref LL_DMA_STREAM_5
ARM GAS  C:\Users\Giorgio\AppData\Local\Temp\ccg7jKJX.s 			page 32


 664:Drivers/STM32F7xx_HAL_Driver/Inc/stm32f7xx_ll_dma.h ****   *         @arg @ref LL_DMA_STREAM_6
 665:Drivers/STM32F7xx_HAL_Driver/Inc/stm32f7xx_ll_dma.h ****   *         @arg @ref LL_DMA_STREAM_7
 666:Drivers/STM32F7xx_HAL_Driver/Inc/stm32f7xx_ll_dma.h ****   * @retval Returned value can be one of the following values:
 667:Drivers/STM32F7xx_HAL_Driver/Inc/stm32f7xx_ll_dma.h ****   *         @arg @ref LL_DMA_MODE_NORMAL
 668:Drivers/STM32F7xx_HAL_Driver/Inc/stm32f7xx_ll_dma.h ****   *         @arg @ref LL_DMA_MODE_CIRCULAR
 669:Drivers/STM32F7xx_HAL_Driver/Inc/stm32f7xx_ll_dma.h ****   *         @arg @ref LL_DMA_MODE_PFCTRL
 670:Drivers/STM32F7xx_HAL_Driver/Inc/stm32f7xx_ll_dma.h ****   */
 671:Drivers/STM32F7xx_HAL_Driver/Inc/stm32f7xx_ll_dma.h **** __STATIC_INLINE uint32_t LL_DMA_GetMode(DMA_TypeDef *DMAx, uint32_t Stream)
 672:Drivers/STM32F7xx_HAL_Driver/Inc/stm32f7xx_ll_dma.h **** {
 673:Drivers/STM32F7xx_HAL_Driver/Inc/stm32f7xx_ll_dma.h ****   return (READ_BIT(((DMA_Stream_TypeDef*)((uint32_t)((uint32_t)DMAx + STREAM_OFFSET_TAB[Stream])))-
 674:Drivers/STM32F7xx_HAL_Driver/Inc/stm32f7xx_ll_dma.h **** }
 675:Drivers/STM32F7xx_HAL_Driver/Inc/stm32f7xx_ll_dma.h **** 
 676:Drivers/STM32F7xx_HAL_Driver/Inc/stm32f7xx_ll_dma.h **** /**
 677:Drivers/STM32F7xx_HAL_Driver/Inc/stm32f7xx_ll_dma.h ****   * @brief Set Peripheral increment mode.
 678:Drivers/STM32F7xx_HAL_Driver/Inc/stm32f7xx_ll_dma.h ****   * @rmtoll CR          PINC           LL_DMA_SetPeriphIncMode
 679:Drivers/STM32F7xx_HAL_Driver/Inc/stm32f7xx_ll_dma.h ****   * @param  DMAx DMAx Instance
 680:Drivers/STM32F7xx_HAL_Driver/Inc/stm32f7xx_ll_dma.h ****   * @param  Stream This parameter can be one of the following values:
 681:Drivers/STM32F7xx_HAL_Driver/Inc/stm32f7xx_ll_dma.h ****   *         @arg @ref LL_DMA_STREAM_0
 682:Drivers/STM32F7xx_HAL_Driver/Inc/stm32f7xx_ll_dma.h ****   *         @arg @ref LL_DMA_STREAM_1
 683:Drivers/STM32F7xx_HAL_Driver/Inc/stm32f7xx_ll_dma.h ****   *         @arg @ref LL_DMA_STREAM_2
 684:Drivers/STM32F7xx_HAL_Driver/Inc/stm32f7xx_ll_dma.h ****   *         @arg @ref LL_DMA_STREAM_3
 685:Drivers/STM32F7xx_HAL_Driver/Inc/stm32f7xx_ll_dma.h ****   *         @arg @ref LL_DMA_STREAM_4
 686:Drivers/STM32F7xx_HAL_Driver/Inc/stm32f7xx_ll_dma.h ****   *         @arg @ref LL_DMA_STREAM_5
 687:Drivers/STM32F7xx_HAL_Driver/Inc/stm32f7xx_ll_dma.h ****   *         @arg @ref LL_DMA_STREAM_6
 688:Drivers/STM32F7xx_HAL_Driver/Inc/stm32f7xx_ll_dma.h ****   *         @arg @ref LL_DMA_STREAM_7
 689:Drivers/STM32F7xx_HAL_Driver/Inc/stm32f7xx_ll_dma.h ****   * @param  IncrementMode This parameter can be one of the following values:
 690:Drivers/STM32F7xx_HAL_Driver/Inc/stm32f7xx_ll_dma.h ****   *         @arg @ref LL_DMA_PERIPH_NOINCREMENT
 691:Drivers/STM32F7xx_HAL_Driver/Inc/stm32f7xx_ll_dma.h ****   *         @arg @ref LL_DMA_PERIPH_INCREMENT
 692:Drivers/STM32F7xx_HAL_Driver/Inc/stm32f7xx_ll_dma.h ****   * @retval None
 693:Drivers/STM32F7xx_HAL_Driver/Inc/stm32f7xx_ll_dma.h ****   */
 694:Drivers/STM32F7xx_HAL_Driver/Inc/stm32f7xx_ll_dma.h **** __STATIC_INLINE void LL_DMA_SetPeriphIncMode(DMA_TypeDef *DMAx, uint32_t Stream, uint32_t Increment
 695:Drivers/STM32F7xx_HAL_Driver/Inc/stm32f7xx_ll_dma.h **** {
 696:Drivers/STM32F7xx_HAL_Driver/Inc/stm32f7xx_ll_dma.h ****   MODIFY_REG(((DMA_Stream_TypeDef*)((uint32_t)((uint32_t)DMAx + STREAM_OFFSET_TAB[Stream])))->CR, D
 697:Drivers/STM32F7xx_HAL_Driver/Inc/stm32f7xx_ll_dma.h **** }
 698:Drivers/STM32F7xx_HAL_Driver/Inc/stm32f7xx_ll_dma.h **** 
 699:Drivers/STM32F7xx_HAL_Driver/Inc/stm32f7xx_ll_dma.h **** /**
 700:Drivers/STM32F7xx_HAL_Driver/Inc/stm32f7xx_ll_dma.h ****   * @brief Get Peripheral increment mode.
 701:Drivers/STM32F7xx_HAL_Driver/Inc/stm32f7xx_ll_dma.h ****   * @rmtoll CR          PINC           LL_DMA_GetPeriphIncMode
 702:Drivers/STM32F7xx_HAL_Driver/Inc/stm32f7xx_ll_dma.h ****   * @param  DMAx DMAx Instance
 703:Drivers/STM32F7xx_HAL_Driver/Inc/stm32f7xx_ll_dma.h ****   * @param  Stream This parameter can be one of the following values:
 704:Drivers/STM32F7xx_HAL_Driver/Inc/stm32f7xx_ll_dma.h ****   *         @arg @ref LL_DMA_STREAM_0
 705:Drivers/STM32F7xx_HAL_Driver/Inc/stm32f7xx_ll_dma.h ****   *         @arg @ref LL_DMA_STREAM_1
 706:Drivers/STM32F7xx_HAL_Driver/Inc/stm32f7xx_ll_dma.h ****   *         @arg @ref LL_DMA_STREAM_2
 707:Drivers/STM32F7xx_HAL_Driver/Inc/stm32f7xx_ll_dma.h ****   *         @arg @ref LL_DMA_STREAM_3
 708:Drivers/STM32F7xx_HAL_Driver/Inc/stm32f7xx_ll_dma.h ****   *         @arg @ref LL_DMA_STREAM_4
 709:Drivers/STM32F7xx_HAL_Driver/Inc/stm32f7xx_ll_dma.h ****   *         @arg @ref LL_DMA_STREAM_5
 710:Drivers/STM32F7xx_HAL_Driver/Inc/stm32f7xx_ll_dma.h ****   *         @arg @ref LL_DMA_STREAM_6
 711:Drivers/STM32F7xx_HAL_Driver/Inc/stm32f7xx_ll_dma.h ****   *         @arg @ref LL_DMA_STREAM_7
 712:Drivers/STM32F7xx_HAL_Driver/Inc/stm32f7xx_ll_dma.h ****   * @retval Returned value can be one of the following values:
 713:Drivers/STM32F7xx_HAL_Driver/Inc/stm32f7xx_ll_dma.h ****   *         @arg @ref LL_DMA_PERIPH_NOINCREMENT
 714:Drivers/STM32F7xx_HAL_Driver/Inc/stm32f7xx_ll_dma.h ****   *         @arg @ref LL_DMA_PERIPH_INCREMENT
 715:Drivers/STM32F7xx_HAL_Driver/Inc/stm32f7xx_ll_dma.h ****   */
 716:Drivers/STM32F7xx_HAL_Driver/Inc/stm32f7xx_ll_dma.h **** __STATIC_INLINE uint32_t LL_DMA_GetPeriphIncMode(DMA_TypeDef *DMAx, uint32_t Stream)
 717:Drivers/STM32F7xx_HAL_Driver/Inc/stm32f7xx_ll_dma.h **** {
 718:Drivers/STM32F7xx_HAL_Driver/Inc/stm32f7xx_ll_dma.h ****   return (READ_BIT(((DMA_Stream_TypeDef*)((uint32_t)((uint32_t)DMAx + STREAM_OFFSET_TAB[Stream])))-
 719:Drivers/STM32F7xx_HAL_Driver/Inc/stm32f7xx_ll_dma.h **** }
 720:Drivers/STM32F7xx_HAL_Driver/Inc/stm32f7xx_ll_dma.h **** 
ARM GAS  C:\Users\Giorgio\AppData\Local\Temp\ccg7jKJX.s 			page 33


 721:Drivers/STM32F7xx_HAL_Driver/Inc/stm32f7xx_ll_dma.h **** /**
 722:Drivers/STM32F7xx_HAL_Driver/Inc/stm32f7xx_ll_dma.h ****   * @brief Set Memory increment mode.
 723:Drivers/STM32F7xx_HAL_Driver/Inc/stm32f7xx_ll_dma.h ****   * @rmtoll CR          MINC           LL_DMA_SetMemoryIncMode
 724:Drivers/STM32F7xx_HAL_Driver/Inc/stm32f7xx_ll_dma.h ****   * @param  DMAx DMAx Instance
 725:Drivers/STM32F7xx_HAL_Driver/Inc/stm32f7xx_ll_dma.h ****   * @param  Stream This parameter can be one of the following values:
 726:Drivers/STM32F7xx_HAL_Driver/Inc/stm32f7xx_ll_dma.h ****   *         @arg @ref LL_DMA_STREAM_0
 727:Drivers/STM32F7xx_HAL_Driver/Inc/stm32f7xx_ll_dma.h ****   *         @arg @ref LL_DMA_STREAM_1
 728:Drivers/STM32F7xx_HAL_Driver/Inc/stm32f7xx_ll_dma.h ****   *         @arg @ref LL_DMA_STREAM_2
 729:Drivers/STM32F7xx_HAL_Driver/Inc/stm32f7xx_ll_dma.h ****   *         @arg @ref LL_DMA_STREAM_3
 730:Drivers/STM32F7xx_HAL_Driver/Inc/stm32f7xx_ll_dma.h ****   *         @arg @ref LL_DMA_STREAM_4
 731:Drivers/STM32F7xx_HAL_Driver/Inc/stm32f7xx_ll_dma.h ****   *         @arg @ref LL_DMA_STREAM_5
 732:Drivers/STM32F7xx_HAL_Driver/Inc/stm32f7xx_ll_dma.h ****   *         @arg @ref LL_DMA_STREAM_6
 733:Drivers/STM32F7xx_HAL_Driver/Inc/stm32f7xx_ll_dma.h ****   *         @arg @ref LL_DMA_STREAM_7
 734:Drivers/STM32F7xx_HAL_Driver/Inc/stm32f7xx_ll_dma.h ****   * @param  IncrementMode This parameter can be one of the following values:
 735:Drivers/STM32F7xx_HAL_Driver/Inc/stm32f7xx_ll_dma.h ****   *         @arg @ref LL_DMA_MEMORY_NOINCREMENT
 736:Drivers/STM32F7xx_HAL_Driver/Inc/stm32f7xx_ll_dma.h ****   *         @arg @ref LL_DMA_MEMORY_INCREMENT
 737:Drivers/STM32F7xx_HAL_Driver/Inc/stm32f7xx_ll_dma.h ****   * @retval None
 738:Drivers/STM32F7xx_HAL_Driver/Inc/stm32f7xx_ll_dma.h ****   */
 739:Drivers/STM32F7xx_HAL_Driver/Inc/stm32f7xx_ll_dma.h **** __STATIC_INLINE void LL_DMA_SetMemoryIncMode(DMA_TypeDef *DMAx, uint32_t Stream, uint32_t Increment
 740:Drivers/STM32F7xx_HAL_Driver/Inc/stm32f7xx_ll_dma.h **** {
 741:Drivers/STM32F7xx_HAL_Driver/Inc/stm32f7xx_ll_dma.h ****   MODIFY_REG(((DMA_Stream_TypeDef*)((uint32_t)((uint32_t)DMAx + STREAM_OFFSET_TAB[Stream])))->CR, D
 742:Drivers/STM32F7xx_HAL_Driver/Inc/stm32f7xx_ll_dma.h **** }
 743:Drivers/STM32F7xx_HAL_Driver/Inc/stm32f7xx_ll_dma.h **** 
 744:Drivers/STM32F7xx_HAL_Driver/Inc/stm32f7xx_ll_dma.h **** /**
 745:Drivers/STM32F7xx_HAL_Driver/Inc/stm32f7xx_ll_dma.h ****   * @brief Get Memory increment mode.
 746:Drivers/STM32F7xx_HAL_Driver/Inc/stm32f7xx_ll_dma.h ****   * @rmtoll CR          MINC           LL_DMA_GetMemoryIncMode
 747:Drivers/STM32F7xx_HAL_Driver/Inc/stm32f7xx_ll_dma.h ****   * @param  DMAx DMAx Instance
 748:Drivers/STM32F7xx_HAL_Driver/Inc/stm32f7xx_ll_dma.h ****   * @param  Stream This parameter can be one of the following values:
 749:Drivers/STM32F7xx_HAL_Driver/Inc/stm32f7xx_ll_dma.h ****   *         @arg @ref LL_DMA_STREAM_0
 750:Drivers/STM32F7xx_HAL_Driver/Inc/stm32f7xx_ll_dma.h ****   *         @arg @ref LL_DMA_STREAM_1
 751:Drivers/STM32F7xx_HAL_Driver/Inc/stm32f7xx_ll_dma.h ****   *         @arg @ref LL_DMA_STREAM_2
 752:Drivers/STM32F7xx_HAL_Driver/Inc/stm32f7xx_ll_dma.h ****   *         @arg @ref LL_DMA_STREAM_3
 753:Drivers/STM32F7xx_HAL_Driver/Inc/stm32f7xx_ll_dma.h ****   *         @arg @ref LL_DMA_STREAM_4
 754:Drivers/STM32F7xx_HAL_Driver/Inc/stm32f7xx_ll_dma.h ****   *         @arg @ref LL_DMA_STREAM_5
 755:Drivers/STM32F7xx_HAL_Driver/Inc/stm32f7xx_ll_dma.h ****   *         @arg @ref LL_DMA_STREAM_6
 756:Drivers/STM32F7xx_HAL_Driver/Inc/stm32f7xx_ll_dma.h ****   *         @arg @ref LL_DMA_STREAM_7
 757:Drivers/STM32F7xx_HAL_Driver/Inc/stm32f7xx_ll_dma.h ****   * @retval Returned value can be one of the following values:
 758:Drivers/STM32F7xx_HAL_Driver/Inc/stm32f7xx_ll_dma.h ****   *         @arg @ref LL_DMA_MEMORY_NOINCREMENT
 759:Drivers/STM32F7xx_HAL_Driver/Inc/stm32f7xx_ll_dma.h ****   *         @arg @ref LL_DMA_MEMORY_INCREMENT
 760:Drivers/STM32F7xx_HAL_Driver/Inc/stm32f7xx_ll_dma.h ****   */
 761:Drivers/STM32F7xx_HAL_Driver/Inc/stm32f7xx_ll_dma.h **** __STATIC_INLINE uint32_t LL_DMA_GetMemoryIncMode(DMA_TypeDef *DMAx, uint32_t Stream)
 762:Drivers/STM32F7xx_HAL_Driver/Inc/stm32f7xx_ll_dma.h **** {
 763:Drivers/STM32F7xx_HAL_Driver/Inc/stm32f7xx_ll_dma.h ****   return (READ_BIT(((DMA_Stream_TypeDef*)((uint32_t)((uint32_t)DMAx + STREAM_OFFSET_TAB[Stream])))-
 764:Drivers/STM32F7xx_HAL_Driver/Inc/stm32f7xx_ll_dma.h **** }
 765:Drivers/STM32F7xx_HAL_Driver/Inc/stm32f7xx_ll_dma.h **** 
 766:Drivers/STM32F7xx_HAL_Driver/Inc/stm32f7xx_ll_dma.h **** /**
 767:Drivers/STM32F7xx_HAL_Driver/Inc/stm32f7xx_ll_dma.h ****   * @brief Set Peripheral size.
 768:Drivers/STM32F7xx_HAL_Driver/Inc/stm32f7xx_ll_dma.h ****   * @rmtoll CR          PSIZE           LL_DMA_SetPeriphSize
 769:Drivers/STM32F7xx_HAL_Driver/Inc/stm32f7xx_ll_dma.h ****   * @param  DMAx DMAx Instance
 770:Drivers/STM32F7xx_HAL_Driver/Inc/stm32f7xx_ll_dma.h ****   * @param  Stream This parameter can be one of the following values:
 771:Drivers/STM32F7xx_HAL_Driver/Inc/stm32f7xx_ll_dma.h ****   *         @arg @ref LL_DMA_STREAM_0
 772:Drivers/STM32F7xx_HAL_Driver/Inc/stm32f7xx_ll_dma.h ****   *         @arg @ref LL_DMA_STREAM_1
 773:Drivers/STM32F7xx_HAL_Driver/Inc/stm32f7xx_ll_dma.h ****   *         @arg @ref LL_DMA_STREAM_2
 774:Drivers/STM32F7xx_HAL_Driver/Inc/stm32f7xx_ll_dma.h ****   *         @arg @ref LL_DMA_STREAM_3
 775:Drivers/STM32F7xx_HAL_Driver/Inc/stm32f7xx_ll_dma.h ****   *         @arg @ref LL_DMA_STREAM_4
 776:Drivers/STM32F7xx_HAL_Driver/Inc/stm32f7xx_ll_dma.h ****   *         @arg @ref LL_DMA_STREAM_5
 777:Drivers/STM32F7xx_HAL_Driver/Inc/stm32f7xx_ll_dma.h ****   *         @arg @ref LL_DMA_STREAM_6
ARM GAS  C:\Users\Giorgio\AppData\Local\Temp\ccg7jKJX.s 			page 34


 778:Drivers/STM32F7xx_HAL_Driver/Inc/stm32f7xx_ll_dma.h ****   *         @arg @ref LL_DMA_STREAM_7
 779:Drivers/STM32F7xx_HAL_Driver/Inc/stm32f7xx_ll_dma.h ****   * @param  Size This parameter can be one of the following values:
 780:Drivers/STM32F7xx_HAL_Driver/Inc/stm32f7xx_ll_dma.h ****   *         @arg @ref LL_DMA_PDATAALIGN_BYTE
 781:Drivers/STM32F7xx_HAL_Driver/Inc/stm32f7xx_ll_dma.h ****   *         @arg @ref LL_DMA_PDATAALIGN_HALFWORD
 782:Drivers/STM32F7xx_HAL_Driver/Inc/stm32f7xx_ll_dma.h ****   *         @arg @ref LL_DMA_PDATAALIGN_WORD
 783:Drivers/STM32F7xx_HAL_Driver/Inc/stm32f7xx_ll_dma.h ****   * @retval None
 784:Drivers/STM32F7xx_HAL_Driver/Inc/stm32f7xx_ll_dma.h ****   */
 785:Drivers/STM32F7xx_HAL_Driver/Inc/stm32f7xx_ll_dma.h **** __STATIC_INLINE void LL_DMA_SetPeriphSize(DMA_TypeDef *DMAx, uint32_t Stream, uint32_t  Size)
 786:Drivers/STM32F7xx_HAL_Driver/Inc/stm32f7xx_ll_dma.h **** {
 787:Drivers/STM32F7xx_HAL_Driver/Inc/stm32f7xx_ll_dma.h ****   MODIFY_REG(((DMA_Stream_TypeDef*)((uint32_t)((uint32_t)DMAx + STREAM_OFFSET_TAB[Stream])))->CR, D
 788:Drivers/STM32F7xx_HAL_Driver/Inc/stm32f7xx_ll_dma.h **** }
 789:Drivers/STM32F7xx_HAL_Driver/Inc/stm32f7xx_ll_dma.h **** 
 790:Drivers/STM32F7xx_HAL_Driver/Inc/stm32f7xx_ll_dma.h **** /**
 791:Drivers/STM32F7xx_HAL_Driver/Inc/stm32f7xx_ll_dma.h ****   * @brief Get Peripheral size.
 792:Drivers/STM32F7xx_HAL_Driver/Inc/stm32f7xx_ll_dma.h ****   * @rmtoll CR          PSIZE           LL_DMA_GetPeriphSize
 793:Drivers/STM32F7xx_HAL_Driver/Inc/stm32f7xx_ll_dma.h ****   * @param  DMAx DMAx Instance
 794:Drivers/STM32F7xx_HAL_Driver/Inc/stm32f7xx_ll_dma.h ****   * @param  Stream This parameter can be one of the following values:
 795:Drivers/STM32F7xx_HAL_Driver/Inc/stm32f7xx_ll_dma.h ****   *         @arg @ref LL_DMA_STREAM_0
 796:Drivers/STM32F7xx_HAL_Driver/Inc/stm32f7xx_ll_dma.h ****   *         @arg @ref LL_DMA_STREAM_1
 797:Drivers/STM32F7xx_HAL_Driver/Inc/stm32f7xx_ll_dma.h ****   *         @arg @ref LL_DMA_STREAM_2
 798:Drivers/STM32F7xx_HAL_Driver/Inc/stm32f7xx_ll_dma.h ****   *         @arg @ref LL_DMA_STREAM_3
 799:Drivers/STM32F7xx_HAL_Driver/Inc/stm32f7xx_ll_dma.h ****   *         @arg @ref LL_DMA_STREAM_4
 800:Drivers/STM32F7xx_HAL_Driver/Inc/stm32f7xx_ll_dma.h ****   *         @arg @ref LL_DMA_STREAM_5
 801:Drivers/STM32F7xx_HAL_Driver/Inc/stm32f7xx_ll_dma.h ****   *         @arg @ref LL_DMA_STREAM_6
 802:Drivers/STM32F7xx_HAL_Driver/Inc/stm32f7xx_ll_dma.h ****   *         @arg @ref LL_DMA_STREAM_7
 803:Drivers/STM32F7xx_HAL_Driver/Inc/stm32f7xx_ll_dma.h ****   * @retval Returned value can be one of the following values:
 804:Drivers/STM32F7xx_HAL_Driver/Inc/stm32f7xx_ll_dma.h ****   *         @arg @ref LL_DMA_PDATAALIGN_BYTE
 805:Drivers/STM32F7xx_HAL_Driver/Inc/stm32f7xx_ll_dma.h ****   *         @arg @ref LL_DMA_PDATAALIGN_HALFWORD
 806:Drivers/STM32F7xx_HAL_Driver/Inc/stm32f7xx_ll_dma.h ****   *         @arg @ref LL_DMA_PDATAALIGN_WORD
 807:Drivers/STM32F7xx_HAL_Driver/Inc/stm32f7xx_ll_dma.h ****   */
 808:Drivers/STM32F7xx_HAL_Driver/Inc/stm32f7xx_ll_dma.h **** __STATIC_INLINE uint32_t LL_DMA_GetPeriphSize(DMA_TypeDef *DMAx, uint32_t Stream)
 809:Drivers/STM32F7xx_HAL_Driver/Inc/stm32f7xx_ll_dma.h **** {
 810:Drivers/STM32F7xx_HAL_Driver/Inc/stm32f7xx_ll_dma.h ****   return (READ_BIT(((DMA_Stream_TypeDef*)((uint32_t)((uint32_t)DMAx + STREAM_OFFSET_TAB[Stream])))-
 811:Drivers/STM32F7xx_HAL_Driver/Inc/stm32f7xx_ll_dma.h **** }
 812:Drivers/STM32F7xx_HAL_Driver/Inc/stm32f7xx_ll_dma.h **** 
 813:Drivers/STM32F7xx_HAL_Driver/Inc/stm32f7xx_ll_dma.h **** /**
 814:Drivers/STM32F7xx_HAL_Driver/Inc/stm32f7xx_ll_dma.h ****   * @brief Set Memory size.
 815:Drivers/STM32F7xx_HAL_Driver/Inc/stm32f7xx_ll_dma.h ****   * @rmtoll CR          MSIZE           LL_DMA_SetMemorySize
 816:Drivers/STM32F7xx_HAL_Driver/Inc/stm32f7xx_ll_dma.h ****   * @param  DMAx DMAx Instance
 817:Drivers/STM32F7xx_HAL_Driver/Inc/stm32f7xx_ll_dma.h ****   * @param  Stream This parameter can be one of the following values:
 818:Drivers/STM32F7xx_HAL_Driver/Inc/stm32f7xx_ll_dma.h ****   *         @arg @ref LL_DMA_STREAM_0
 819:Drivers/STM32F7xx_HAL_Driver/Inc/stm32f7xx_ll_dma.h ****   *         @arg @ref LL_DMA_STREAM_1
 820:Drivers/STM32F7xx_HAL_Driver/Inc/stm32f7xx_ll_dma.h ****   *         @arg @ref LL_DMA_STREAM_2
 821:Drivers/STM32F7xx_HAL_Driver/Inc/stm32f7xx_ll_dma.h ****   *         @arg @ref LL_DMA_STREAM_3
 822:Drivers/STM32F7xx_HAL_Driver/Inc/stm32f7xx_ll_dma.h ****   *         @arg @ref LL_DMA_STREAM_4
 823:Drivers/STM32F7xx_HAL_Driver/Inc/stm32f7xx_ll_dma.h ****   *         @arg @ref LL_DMA_STREAM_5
 824:Drivers/STM32F7xx_HAL_Driver/Inc/stm32f7xx_ll_dma.h ****   *         @arg @ref LL_DMA_STREAM_6
 825:Drivers/STM32F7xx_HAL_Driver/Inc/stm32f7xx_ll_dma.h ****   *         @arg @ref LL_DMA_STREAM_7
 826:Drivers/STM32F7xx_HAL_Driver/Inc/stm32f7xx_ll_dma.h ****   * @param  Size This parameter can be one of the following values:
 827:Drivers/STM32F7xx_HAL_Driver/Inc/stm32f7xx_ll_dma.h ****   *         @arg @ref LL_DMA_MDATAALIGN_BYTE
 828:Drivers/STM32F7xx_HAL_Driver/Inc/stm32f7xx_ll_dma.h ****   *         @arg @ref LL_DMA_MDATAALIGN_HALFWORD
 829:Drivers/STM32F7xx_HAL_Driver/Inc/stm32f7xx_ll_dma.h ****   *         @arg @ref LL_DMA_MDATAALIGN_WORD
 830:Drivers/STM32F7xx_HAL_Driver/Inc/stm32f7xx_ll_dma.h ****   * @retval None
 831:Drivers/STM32F7xx_HAL_Driver/Inc/stm32f7xx_ll_dma.h ****   */
 832:Drivers/STM32F7xx_HAL_Driver/Inc/stm32f7xx_ll_dma.h **** __STATIC_INLINE void LL_DMA_SetMemorySize(DMA_TypeDef *DMAx, uint32_t Stream, uint32_t  Size)
 833:Drivers/STM32F7xx_HAL_Driver/Inc/stm32f7xx_ll_dma.h **** {
 834:Drivers/STM32F7xx_HAL_Driver/Inc/stm32f7xx_ll_dma.h ****   MODIFY_REG(((DMA_Stream_TypeDef*)((uint32_t)((uint32_t)DMAx + STREAM_OFFSET_TAB[Stream])))->CR, D
ARM GAS  C:\Users\Giorgio\AppData\Local\Temp\ccg7jKJX.s 			page 35


 835:Drivers/STM32F7xx_HAL_Driver/Inc/stm32f7xx_ll_dma.h **** }
 836:Drivers/STM32F7xx_HAL_Driver/Inc/stm32f7xx_ll_dma.h **** 
 837:Drivers/STM32F7xx_HAL_Driver/Inc/stm32f7xx_ll_dma.h **** /**
 838:Drivers/STM32F7xx_HAL_Driver/Inc/stm32f7xx_ll_dma.h ****   * @brief Get Memory size.
 839:Drivers/STM32F7xx_HAL_Driver/Inc/stm32f7xx_ll_dma.h ****   * @rmtoll CR          MSIZE           LL_DMA_GetMemorySize
 840:Drivers/STM32F7xx_HAL_Driver/Inc/stm32f7xx_ll_dma.h ****   * @param  DMAx DMAx Instance
 841:Drivers/STM32F7xx_HAL_Driver/Inc/stm32f7xx_ll_dma.h ****   * @param  Stream This parameter can be one of the following values:
 842:Drivers/STM32F7xx_HAL_Driver/Inc/stm32f7xx_ll_dma.h ****   *         @arg @ref LL_DMA_STREAM_0
 843:Drivers/STM32F7xx_HAL_Driver/Inc/stm32f7xx_ll_dma.h ****   *         @arg @ref LL_DMA_STREAM_1
 844:Drivers/STM32F7xx_HAL_Driver/Inc/stm32f7xx_ll_dma.h ****   *         @arg @ref LL_DMA_STREAM_2
 845:Drivers/STM32F7xx_HAL_Driver/Inc/stm32f7xx_ll_dma.h ****   *         @arg @ref LL_DMA_STREAM_3
 846:Drivers/STM32F7xx_HAL_Driver/Inc/stm32f7xx_ll_dma.h ****   *         @arg @ref LL_DMA_STREAM_4
 847:Drivers/STM32F7xx_HAL_Driver/Inc/stm32f7xx_ll_dma.h ****   *         @arg @ref LL_DMA_STREAM_5
 848:Drivers/STM32F7xx_HAL_Driver/Inc/stm32f7xx_ll_dma.h ****   *         @arg @ref LL_DMA_STREAM_6
 849:Drivers/STM32F7xx_HAL_Driver/Inc/stm32f7xx_ll_dma.h ****   *         @arg @ref LL_DMA_STREAM_7
 850:Drivers/STM32F7xx_HAL_Driver/Inc/stm32f7xx_ll_dma.h ****   * @retval Returned value can be one of the following values:
 851:Drivers/STM32F7xx_HAL_Driver/Inc/stm32f7xx_ll_dma.h ****   *         @arg @ref LL_DMA_MDATAALIGN_BYTE
 852:Drivers/STM32F7xx_HAL_Driver/Inc/stm32f7xx_ll_dma.h ****   *         @arg @ref LL_DMA_MDATAALIGN_HALFWORD
 853:Drivers/STM32F7xx_HAL_Driver/Inc/stm32f7xx_ll_dma.h ****   *         @arg @ref LL_DMA_MDATAALIGN_WORD
 854:Drivers/STM32F7xx_HAL_Driver/Inc/stm32f7xx_ll_dma.h ****   */
 855:Drivers/STM32F7xx_HAL_Driver/Inc/stm32f7xx_ll_dma.h **** __STATIC_INLINE uint32_t LL_DMA_GetMemorySize(DMA_TypeDef *DMAx, uint32_t Stream)
 856:Drivers/STM32F7xx_HAL_Driver/Inc/stm32f7xx_ll_dma.h **** {
 857:Drivers/STM32F7xx_HAL_Driver/Inc/stm32f7xx_ll_dma.h ****   return (READ_BIT(((DMA_Stream_TypeDef*)((uint32_t)((uint32_t)DMAx + STREAM_OFFSET_TAB[Stream])))-
 858:Drivers/STM32F7xx_HAL_Driver/Inc/stm32f7xx_ll_dma.h **** }
 859:Drivers/STM32F7xx_HAL_Driver/Inc/stm32f7xx_ll_dma.h **** 
 860:Drivers/STM32F7xx_HAL_Driver/Inc/stm32f7xx_ll_dma.h **** /**
 861:Drivers/STM32F7xx_HAL_Driver/Inc/stm32f7xx_ll_dma.h ****   * @brief Set Peripheral increment offset size.
 862:Drivers/STM32F7xx_HAL_Driver/Inc/stm32f7xx_ll_dma.h ****   * @rmtoll CR          PINCOS           LL_DMA_SetIncOffsetSize
 863:Drivers/STM32F7xx_HAL_Driver/Inc/stm32f7xx_ll_dma.h ****   * @param  DMAx DMAx Instance
 864:Drivers/STM32F7xx_HAL_Driver/Inc/stm32f7xx_ll_dma.h ****   * @param  Stream This parameter can be one of the following values:
 865:Drivers/STM32F7xx_HAL_Driver/Inc/stm32f7xx_ll_dma.h ****   *         @arg @ref LL_DMA_STREAM_0
 866:Drivers/STM32F7xx_HAL_Driver/Inc/stm32f7xx_ll_dma.h ****   *         @arg @ref LL_DMA_STREAM_1
 867:Drivers/STM32F7xx_HAL_Driver/Inc/stm32f7xx_ll_dma.h ****   *         @arg @ref LL_DMA_STREAM_2
 868:Drivers/STM32F7xx_HAL_Driver/Inc/stm32f7xx_ll_dma.h ****   *         @arg @ref LL_DMA_STREAM_3
 869:Drivers/STM32F7xx_HAL_Driver/Inc/stm32f7xx_ll_dma.h ****   *         @arg @ref LL_DMA_STREAM_4
 870:Drivers/STM32F7xx_HAL_Driver/Inc/stm32f7xx_ll_dma.h ****   *         @arg @ref LL_DMA_STREAM_5
 871:Drivers/STM32F7xx_HAL_Driver/Inc/stm32f7xx_ll_dma.h ****   *         @arg @ref LL_DMA_STREAM_6
 872:Drivers/STM32F7xx_HAL_Driver/Inc/stm32f7xx_ll_dma.h ****   *         @arg @ref LL_DMA_STREAM_7
 873:Drivers/STM32F7xx_HAL_Driver/Inc/stm32f7xx_ll_dma.h ****   * @param  OffsetSize This parameter can be one of the following values:
 874:Drivers/STM32F7xx_HAL_Driver/Inc/stm32f7xx_ll_dma.h ****   *         @arg @ref LL_DMA_OFFSETSIZE_PSIZE
 875:Drivers/STM32F7xx_HAL_Driver/Inc/stm32f7xx_ll_dma.h ****   *         @arg @ref LL_DMA_OFFSETSIZE_FIXEDTO4
 876:Drivers/STM32F7xx_HAL_Driver/Inc/stm32f7xx_ll_dma.h ****   * @retval None
 877:Drivers/STM32F7xx_HAL_Driver/Inc/stm32f7xx_ll_dma.h ****   */
 878:Drivers/STM32F7xx_HAL_Driver/Inc/stm32f7xx_ll_dma.h **** __STATIC_INLINE void LL_DMA_SetIncOffsetSize(DMA_TypeDef *DMAx, uint32_t Stream, uint32_t OffsetSiz
 879:Drivers/STM32F7xx_HAL_Driver/Inc/stm32f7xx_ll_dma.h **** {
 880:Drivers/STM32F7xx_HAL_Driver/Inc/stm32f7xx_ll_dma.h ****   MODIFY_REG(((DMA_Stream_TypeDef*)((uint32_t)((uint32_t)DMAx + STREAM_OFFSET_TAB[Stream])))->CR, D
 881:Drivers/STM32F7xx_HAL_Driver/Inc/stm32f7xx_ll_dma.h **** }
 882:Drivers/STM32F7xx_HAL_Driver/Inc/stm32f7xx_ll_dma.h **** 
 883:Drivers/STM32F7xx_HAL_Driver/Inc/stm32f7xx_ll_dma.h **** /**
 884:Drivers/STM32F7xx_HAL_Driver/Inc/stm32f7xx_ll_dma.h ****   * @brief Get Peripheral increment offset size.
 885:Drivers/STM32F7xx_HAL_Driver/Inc/stm32f7xx_ll_dma.h ****   * @rmtoll CR          PINCOS           LL_DMA_GetIncOffsetSize
 886:Drivers/STM32F7xx_HAL_Driver/Inc/stm32f7xx_ll_dma.h ****   * @param  DMAx DMAx Instance
 887:Drivers/STM32F7xx_HAL_Driver/Inc/stm32f7xx_ll_dma.h ****   * @param  Stream This parameter can be one of the following values:
 888:Drivers/STM32F7xx_HAL_Driver/Inc/stm32f7xx_ll_dma.h ****   *         @arg @ref LL_DMA_STREAM_0
 889:Drivers/STM32F7xx_HAL_Driver/Inc/stm32f7xx_ll_dma.h ****   *         @arg @ref LL_DMA_STREAM_1
 890:Drivers/STM32F7xx_HAL_Driver/Inc/stm32f7xx_ll_dma.h ****   *         @arg @ref LL_DMA_STREAM_2
 891:Drivers/STM32F7xx_HAL_Driver/Inc/stm32f7xx_ll_dma.h ****   *         @arg @ref LL_DMA_STREAM_3
ARM GAS  C:\Users\Giorgio\AppData\Local\Temp\ccg7jKJX.s 			page 36


 892:Drivers/STM32F7xx_HAL_Driver/Inc/stm32f7xx_ll_dma.h ****   *         @arg @ref LL_DMA_STREAM_4
 893:Drivers/STM32F7xx_HAL_Driver/Inc/stm32f7xx_ll_dma.h ****   *         @arg @ref LL_DMA_STREAM_5
 894:Drivers/STM32F7xx_HAL_Driver/Inc/stm32f7xx_ll_dma.h ****   *         @arg @ref LL_DMA_STREAM_6
 895:Drivers/STM32F7xx_HAL_Driver/Inc/stm32f7xx_ll_dma.h ****   *         @arg @ref LL_DMA_STREAM_7
 896:Drivers/STM32F7xx_HAL_Driver/Inc/stm32f7xx_ll_dma.h ****   * @retval Returned value can be one of the following values:
 897:Drivers/STM32F7xx_HAL_Driver/Inc/stm32f7xx_ll_dma.h ****   *         @arg @ref LL_DMA_OFFSETSIZE_PSIZE
 898:Drivers/STM32F7xx_HAL_Driver/Inc/stm32f7xx_ll_dma.h ****   *         @arg @ref LL_DMA_OFFSETSIZE_FIXEDTO4
 899:Drivers/STM32F7xx_HAL_Driver/Inc/stm32f7xx_ll_dma.h ****   */
 900:Drivers/STM32F7xx_HAL_Driver/Inc/stm32f7xx_ll_dma.h **** __STATIC_INLINE uint32_t LL_DMA_GetIncOffsetSize(DMA_TypeDef *DMAx, uint32_t Stream)
 901:Drivers/STM32F7xx_HAL_Driver/Inc/stm32f7xx_ll_dma.h **** {
 902:Drivers/STM32F7xx_HAL_Driver/Inc/stm32f7xx_ll_dma.h ****   return (READ_BIT(((DMA_Stream_TypeDef*)((uint32_t)((uint32_t)DMAx + STREAM_OFFSET_TAB[Stream])))-
 903:Drivers/STM32F7xx_HAL_Driver/Inc/stm32f7xx_ll_dma.h **** }
 904:Drivers/STM32F7xx_HAL_Driver/Inc/stm32f7xx_ll_dma.h **** 
 905:Drivers/STM32F7xx_HAL_Driver/Inc/stm32f7xx_ll_dma.h **** /**
 906:Drivers/STM32F7xx_HAL_Driver/Inc/stm32f7xx_ll_dma.h ****   * @brief Set Stream priority level.
 907:Drivers/STM32F7xx_HAL_Driver/Inc/stm32f7xx_ll_dma.h ****   * @rmtoll CR          PL           LL_DMA_SetStreamPriorityLevel
 908:Drivers/STM32F7xx_HAL_Driver/Inc/stm32f7xx_ll_dma.h ****   * @param  DMAx DMAx Instance
 909:Drivers/STM32F7xx_HAL_Driver/Inc/stm32f7xx_ll_dma.h ****   * @param  Stream This parameter can be one of the following values:
 910:Drivers/STM32F7xx_HAL_Driver/Inc/stm32f7xx_ll_dma.h ****   *         @arg @ref LL_DMA_STREAM_0
 911:Drivers/STM32F7xx_HAL_Driver/Inc/stm32f7xx_ll_dma.h ****   *         @arg @ref LL_DMA_STREAM_1
 912:Drivers/STM32F7xx_HAL_Driver/Inc/stm32f7xx_ll_dma.h ****   *         @arg @ref LL_DMA_STREAM_2
 913:Drivers/STM32F7xx_HAL_Driver/Inc/stm32f7xx_ll_dma.h ****   *         @arg @ref LL_DMA_STREAM_3
 914:Drivers/STM32F7xx_HAL_Driver/Inc/stm32f7xx_ll_dma.h ****   *         @arg @ref LL_DMA_STREAM_4
 915:Drivers/STM32F7xx_HAL_Driver/Inc/stm32f7xx_ll_dma.h ****   *         @arg @ref LL_DMA_STREAM_5
 916:Drivers/STM32F7xx_HAL_Driver/Inc/stm32f7xx_ll_dma.h ****   *         @arg @ref LL_DMA_STREAM_6
 917:Drivers/STM32F7xx_HAL_Driver/Inc/stm32f7xx_ll_dma.h ****   *         @arg @ref LL_DMA_STREAM_7
 918:Drivers/STM32F7xx_HAL_Driver/Inc/stm32f7xx_ll_dma.h ****   * @param  Priority This parameter can be one of the following values:
 919:Drivers/STM32F7xx_HAL_Driver/Inc/stm32f7xx_ll_dma.h ****   *         @arg @ref LL_DMA_PRIORITY_LOW
 920:Drivers/STM32F7xx_HAL_Driver/Inc/stm32f7xx_ll_dma.h ****   *         @arg @ref LL_DMA_PRIORITY_MEDIUM
 921:Drivers/STM32F7xx_HAL_Driver/Inc/stm32f7xx_ll_dma.h ****   *         @arg @ref LL_DMA_PRIORITY_HIGH
 922:Drivers/STM32F7xx_HAL_Driver/Inc/stm32f7xx_ll_dma.h ****   *         @arg @ref LL_DMA_PRIORITY_VERYHIGH
 923:Drivers/STM32F7xx_HAL_Driver/Inc/stm32f7xx_ll_dma.h ****   * @retval None
 924:Drivers/STM32F7xx_HAL_Driver/Inc/stm32f7xx_ll_dma.h ****   */
 925:Drivers/STM32F7xx_HAL_Driver/Inc/stm32f7xx_ll_dma.h **** __STATIC_INLINE void LL_DMA_SetStreamPriorityLevel(DMA_TypeDef *DMAx, uint32_t Stream, uint32_t  Pr
 926:Drivers/STM32F7xx_HAL_Driver/Inc/stm32f7xx_ll_dma.h **** {
 927:Drivers/STM32F7xx_HAL_Driver/Inc/stm32f7xx_ll_dma.h ****   MODIFY_REG(((DMA_Stream_TypeDef*)((uint32_t)((uint32_t)DMAx + STREAM_OFFSET_TAB[Stream])))->CR, D
 928:Drivers/STM32F7xx_HAL_Driver/Inc/stm32f7xx_ll_dma.h **** }
 929:Drivers/STM32F7xx_HAL_Driver/Inc/stm32f7xx_ll_dma.h **** 
 930:Drivers/STM32F7xx_HAL_Driver/Inc/stm32f7xx_ll_dma.h **** /**
 931:Drivers/STM32F7xx_HAL_Driver/Inc/stm32f7xx_ll_dma.h ****   * @brief Get Stream priority level.
 932:Drivers/STM32F7xx_HAL_Driver/Inc/stm32f7xx_ll_dma.h ****   * @rmtoll CR          PL           LL_DMA_GetStreamPriorityLevel
 933:Drivers/STM32F7xx_HAL_Driver/Inc/stm32f7xx_ll_dma.h ****   * @param  DMAx DMAx Instance
 934:Drivers/STM32F7xx_HAL_Driver/Inc/stm32f7xx_ll_dma.h ****   * @param  Stream This parameter can be one of the following values:
 935:Drivers/STM32F7xx_HAL_Driver/Inc/stm32f7xx_ll_dma.h ****   *         @arg @ref LL_DMA_STREAM_0
 936:Drivers/STM32F7xx_HAL_Driver/Inc/stm32f7xx_ll_dma.h ****   *         @arg @ref LL_DMA_STREAM_1
 937:Drivers/STM32F7xx_HAL_Driver/Inc/stm32f7xx_ll_dma.h ****   *         @arg @ref LL_DMA_STREAM_2
 938:Drivers/STM32F7xx_HAL_Driver/Inc/stm32f7xx_ll_dma.h ****   *         @arg @ref LL_DMA_STREAM_3
 939:Drivers/STM32F7xx_HAL_Driver/Inc/stm32f7xx_ll_dma.h ****   *         @arg @ref LL_DMA_STREAM_4
 940:Drivers/STM32F7xx_HAL_Driver/Inc/stm32f7xx_ll_dma.h ****   *         @arg @ref LL_DMA_STREAM_5
 941:Drivers/STM32F7xx_HAL_Driver/Inc/stm32f7xx_ll_dma.h ****   *         @arg @ref LL_DMA_STREAM_6
 942:Drivers/STM32F7xx_HAL_Driver/Inc/stm32f7xx_ll_dma.h ****   *         @arg @ref LL_DMA_STREAM_7
 943:Drivers/STM32F7xx_HAL_Driver/Inc/stm32f7xx_ll_dma.h ****   * @retval Returned value can be one of the following values:
 944:Drivers/STM32F7xx_HAL_Driver/Inc/stm32f7xx_ll_dma.h ****   *         @arg @ref LL_DMA_PRIORITY_LOW
 945:Drivers/STM32F7xx_HAL_Driver/Inc/stm32f7xx_ll_dma.h ****   *         @arg @ref LL_DMA_PRIORITY_MEDIUM
 946:Drivers/STM32F7xx_HAL_Driver/Inc/stm32f7xx_ll_dma.h ****   *         @arg @ref LL_DMA_PRIORITY_HIGH
 947:Drivers/STM32F7xx_HAL_Driver/Inc/stm32f7xx_ll_dma.h ****   *         @arg @ref LL_DMA_PRIORITY_VERYHIGH
 948:Drivers/STM32F7xx_HAL_Driver/Inc/stm32f7xx_ll_dma.h ****   */
ARM GAS  C:\Users\Giorgio\AppData\Local\Temp\ccg7jKJX.s 			page 37


 949:Drivers/STM32F7xx_HAL_Driver/Inc/stm32f7xx_ll_dma.h **** __STATIC_INLINE uint32_t LL_DMA_GetStreamPriorityLevel(DMA_TypeDef *DMAx, uint32_t Stream)
 950:Drivers/STM32F7xx_HAL_Driver/Inc/stm32f7xx_ll_dma.h **** {
 951:Drivers/STM32F7xx_HAL_Driver/Inc/stm32f7xx_ll_dma.h ****   return (READ_BIT(((DMA_Stream_TypeDef*)((uint32_t)((uint32_t)DMAx + STREAM_OFFSET_TAB[Stream])))-
 952:Drivers/STM32F7xx_HAL_Driver/Inc/stm32f7xx_ll_dma.h **** }
 953:Drivers/STM32F7xx_HAL_Driver/Inc/stm32f7xx_ll_dma.h **** 
 954:Drivers/STM32F7xx_HAL_Driver/Inc/stm32f7xx_ll_dma.h **** /**
 955:Drivers/STM32F7xx_HAL_Driver/Inc/stm32f7xx_ll_dma.h ****   * @brief Set Number of data to transfer.
 956:Drivers/STM32F7xx_HAL_Driver/Inc/stm32f7xx_ll_dma.h ****   * @rmtoll NDTR          NDT           LL_DMA_SetDataLength
 957:Drivers/STM32F7xx_HAL_Driver/Inc/stm32f7xx_ll_dma.h ****   * @note   This action has no effect if
 958:Drivers/STM32F7xx_HAL_Driver/Inc/stm32f7xx_ll_dma.h ****   *         stream is enabled.
 959:Drivers/STM32F7xx_HAL_Driver/Inc/stm32f7xx_ll_dma.h ****   * @param  DMAx DMAx Instance
 960:Drivers/STM32F7xx_HAL_Driver/Inc/stm32f7xx_ll_dma.h ****   * @param  Stream This parameter can be one of the following values:
 961:Drivers/STM32F7xx_HAL_Driver/Inc/stm32f7xx_ll_dma.h ****   *         @arg @ref LL_DMA_STREAM_0
 962:Drivers/STM32F7xx_HAL_Driver/Inc/stm32f7xx_ll_dma.h ****   *         @arg @ref LL_DMA_STREAM_1
 963:Drivers/STM32F7xx_HAL_Driver/Inc/stm32f7xx_ll_dma.h ****   *         @arg @ref LL_DMA_STREAM_2
 964:Drivers/STM32F7xx_HAL_Driver/Inc/stm32f7xx_ll_dma.h ****   *         @arg @ref LL_DMA_STREAM_3
 965:Drivers/STM32F7xx_HAL_Driver/Inc/stm32f7xx_ll_dma.h ****   *         @arg @ref LL_DMA_STREAM_4
 966:Drivers/STM32F7xx_HAL_Driver/Inc/stm32f7xx_ll_dma.h ****   *         @arg @ref LL_DMA_STREAM_5
 967:Drivers/STM32F7xx_HAL_Driver/Inc/stm32f7xx_ll_dma.h ****   *         @arg @ref LL_DMA_STREAM_6
 968:Drivers/STM32F7xx_HAL_Driver/Inc/stm32f7xx_ll_dma.h ****   *         @arg @ref LL_DMA_STREAM_7
 969:Drivers/STM32F7xx_HAL_Driver/Inc/stm32f7xx_ll_dma.h ****   * @param  NbData Between 0 to 0xFFFFFFFF
 970:Drivers/STM32F7xx_HAL_Driver/Inc/stm32f7xx_ll_dma.h ****   * @retval None
 971:Drivers/STM32F7xx_HAL_Driver/Inc/stm32f7xx_ll_dma.h ****   */
 972:Drivers/STM32F7xx_HAL_Driver/Inc/stm32f7xx_ll_dma.h **** __STATIC_INLINE void LL_DMA_SetDataLength(DMA_TypeDef* DMAx, uint32_t Stream, uint32_t NbData)
 973:Drivers/STM32F7xx_HAL_Driver/Inc/stm32f7xx_ll_dma.h **** {
 974:Drivers/STM32F7xx_HAL_Driver/Inc/stm32f7xx_ll_dma.h ****   MODIFY_REG(((DMA_Stream_TypeDef*)((uint32_t)((uint32_t)DMAx + STREAM_OFFSET_TAB[Stream])))->NDTR,
 975:Drivers/STM32F7xx_HAL_Driver/Inc/stm32f7xx_ll_dma.h **** }
 976:Drivers/STM32F7xx_HAL_Driver/Inc/stm32f7xx_ll_dma.h **** 
 977:Drivers/STM32F7xx_HAL_Driver/Inc/stm32f7xx_ll_dma.h **** /**
 978:Drivers/STM32F7xx_HAL_Driver/Inc/stm32f7xx_ll_dma.h ****   * @brief Get Number of data to transfer.
 979:Drivers/STM32F7xx_HAL_Driver/Inc/stm32f7xx_ll_dma.h ****   * @rmtoll NDTR          NDT           LL_DMA_GetDataLength
 980:Drivers/STM32F7xx_HAL_Driver/Inc/stm32f7xx_ll_dma.h ****   * @note   Once the stream is enabled, the return value indicate the
 981:Drivers/STM32F7xx_HAL_Driver/Inc/stm32f7xx_ll_dma.h ****   *         remaining bytes to be transmitted.
 982:Drivers/STM32F7xx_HAL_Driver/Inc/stm32f7xx_ll_dma.h ****   * @param  DMAx DMAx Instance
 983:Drivers/STM32F7xx_HAL_Driver/Inc/stm32f7xx_ll_dma.h ****   * @param  Stream This parameter can be one of the following values:
 984:Drivers/STM32F7xx_HAL_Driver/Inc/stm32f7xx_ll_dma.h ****   *         @arg @ref LL_DMA_STREAM_0
 985:Drivers/STM32F7xx_HAL_Driver/Inc/stm32f7xx_ll_dma.h ****   *         @arg @ref LL_DMA_STREAM_1
 986:Drivers/STM32F7xx_HAL_Driver/Inc/stm32f7xx_ll_dma.h ****   *         @arg @ref LL_DMA_STREAM_2
 987:Drivers/STM32F7xx_HAL_Driver/Inc/stm32f7xx_ll_dma.h ****   *         @arg @ref LL_DMA_STREAM_3
 988:Drivers/STM32F7xx_HAL_Driver/Inc/stm32f7xx_ll_dma.h ****   *         @arg @ref LL_DMA_STREAM_4
 989:Drivers/STM32F7xx_HAL_Driver/Inc/stm32f7xx_ll_dma.h ****   *         @arg @ref LL_DMA_STREAM_5
 990:Drivers/STM32F7xx_HAL_Driver/Inc/stm32f7xx_ll_dma.h ****   *         @arg @ref LL_DMA_STREAM_6
 991:Drivers/STM32F7xx_HAL_Driver/Inc/stm32f7xx_ll_dma.h ****   *         @arg @ref LL_DMA_STREAM_7
 992:Drivers/STM32F7xx_HAL_Driver/Inc/stm32f7xx_ll_dma.h ****   * @retval Between 0 to 0xFFFFFFFF
 993:Drivers/STM32F7xx_HAL_Driver/Inc/stm32f7xx_ll_dma.h ****   */
 994:Drivers/STM32F7xx_HAL_Driver/Inc/stm32f7xx_ll_dma.h **** __STATIC_INLINE uint32_t LL_DMA_GetDataLength(DMA_TypeDef* DMAx, uint32_t Stream)
 995:Drivers/STM32F7xx_HAL_Driver/Inc/stm32f7xx_ll_dma.h **** {
 996:Drivers/STM32F7xx_HAL_Driver/Inc/stm32f7xx_ll_dma.h ****   return (READ_BIT(((DMA_Stream_TypeDef*)((uint32_t)((uint32_t)DMAx + STREAM_OFFSET_TAB[Stream])))-
 997:Drivers/STM32F7xx_HAL_Driver/Inc/stm32f7xx_ll_dma.h **** }
 998:Drivers/STM32F7xx_HAL_Driver/Inc/stm32f7xx_ll_dma.h **** 
 999:Drivers/STM32F7xx_HAL_Driver/Inc/stm32f7xx_ll_dma.h **** /**
1000:Drivers/STM32F7xx_HAL_Driver/Inc/stm32f7xx_ll_dma.h ****   * @brief Select Channel number associated to the Stream.
1001:Drivers/STM32F7xx_HAL_Driver/Inc/stm32f7xx_ll_dma.h ****   * @rmtoll CR          CHSEL           LL_DMA_SetChannelSelection
1002:Drivers/STM32F7xx_HAL_Driver/Inc/stm32f7xx_ll_dma.h ****   * @param  DMAx DMAx Instance
1003:Drivers/STM32F7xx_HAL_Driver/Inc/stm32f7xx_ll_dma.h ****   * @param  Stream This parameter can be one of the following values:
1004:Drivers/STM32F7xx_HAL_Driver/Inc/stm32f7xx_ll_dma.h ****   *         @arg @ref LL_DMA_STREAM_0
1005:Drivers/STM32F7xx_HAL_Driver/Inc/stm32f7xx_ll_dma.h ****   *         @arg @ref LL_DMA_STREAM_1
ARM GAS  C:\Users\Giorgio\AppData\Local\Temp\ccg7jKJX.s 			page 38


1006:Drivers/STM32F7xx_HAL_Driver/Inc/stm32f7xx_ll_dma.h ****   *         @arg @ref LL_DMA_STREAM_2
1007:Drivers/STM32F7xx_HAL_Driver/Inc/stm32f7xx_ll_dma.h ****   *         @arg @ref LL_DMA_STREAM_3
1008:Drivers/STM32F7xx_HAL_Driver/Inc/stm32f7xx_ll_dma.h ****   *         @arg @ref LL_DMA_STREAM_4
1009:Drivers/STM32F7xx_HAL_Driver/Inc/stm32f7xx_ll_dma.h ****   *         @arg @ref LL_DMA_STREAM_5
1010:Drivers/STM32F7xx_HAL_Driver/Inc/stm32f7xx_ll_dma.h ****   *         @arg @ref LL_DMA_STREAM_6
1011:Drivers/STM32F7xx_HAL_Driver/Inc/stm32f7xx_ll_dma.h ****   *         @arg @ref LL_DMA_STREAM_7
1012:Drivers/STM32F7xx_HAL_Driver/Inc/stm32f7xx_ll_dma.h ****   * @param  Channel This parameter can be one of the following values:
1013:Drivers/STM32F7xx_HAL_Driver/Inc/stm32f7xx_ll_dma.h ****   *         @arg @ref LL_DMA_CHANNEL_0
1014:Drivers/STM32F7xx_HAL_Driver/Inc/stm32f7xx_ll_dma.h ****   *         @arg @ref LL_DMA_CHANNEL_1
1015:Drivers/STM32F7xx_HAL_Driver/Inc/stm32f7xx_ll_dma.h ****   *         @arg @ref LL_DMA_CHANNEL_2
1016:Drivers/STM32F7xx_HAL_Driver/Inc/stm32f7xx_ll_dma.h ****   *         @arg @ref LL_DMA_CHANNEL_3
1017:Drivers/STM32F7xx_HAL_Driver/Inc/stm32f7xx_ll_dma.h ****   *         @arg @ref LL_DMA_CHANNEL_4
1018:Drivers/STM32F7xx_HAL_Driver/Inc/stm32f7xx_ll_dma.h ****   *         @arg @ref LL_DMA_CHANNEL_5
1019:Drivers/STM32F7xx_HAL_Driver/Inc/stm32f7xx_ll_dma.h ****   *         @arg @ref LL_DMA_CHANNEL_6
1020:Drivers/STM32F7xx_HAL_Driver/Inc/stm32f7xx_ll_dma.h ****   *         @arg @ref LL_DMA_CHANNEL_7
1021:Drivers/STM32F7xx_HAL_Driver/Inc/stm32f7xx_ll_dma.h ****   *         @arg @ref LL_DMA_CHANNEL_8 (*)
1022:Drivers/STM32F7xx_HAL_Driver/Inc/stm32f7xx_ll_dma.h ****   *         @arg @ref LL_DMA_CHANNEL_9 (*)
1023:Drivers/STM32F7xx_HAL_Driver/Inc/stm32f7xx_ll_dma.h ****   *         @arg @ref LL_DMA_CHANNEL_10 (*)
1024:Drivers/STM32F7xx_HAL_Driver/Inc/stm32f7xx_ll_dma.h ****   *         @arg @ref LL_DMA_CHANNEL_11 (*)
1025:Drivers/STM32F7xx_HAL_Driver/Inc/stm32f7xx_ll_dma.h ****   *         @arg @ref LL_DMA_CHANNEL_12 (*)
1026:Drivers/STM32F7xx_HAL_Driver/Inc/stm32f7xx_ll_dma.h ****   *         @arg @ref LL_DMA_CHANNEL_13 (*)
1027:Drivers/STM32F7xx_HAL_Driver/Inc/stm32f7xx_ll_dma.h ****   *         @arg @ref LL_DMA_CHANNEL_14 (*)
1028:Drivers/STM32F7xx_HAL_Driver/Inc/stm32f7xx_ll_dma.h ****   *         @arg @ref LL_DMA_CHANNEL_15 (*)
1029:Drivers/STM32F7xx_HAL_Driver/Inc/stm32f7xx_ll_dma.h ****   *
1030:Drivers/STM32F7xx_HAL_Driver/Inc/stm32f7xx_ll_dma.h ****   *         (*) value not defined in all devices.
1031:Drivers/STM32F7xx_HAL_Driver/Inc/stm32f7xx_ll_dma.h ****   * @retval None
1032:Drivers/STM32F7xx_HAL_Driver/Inc/stm32f7xx_ll_dma.h ****   */
1033:Drivers/STM32F7xx_HAL_Driver/Inc/stm32f7xx_ll_dma.h **** __STATIC_INLINE void LL_DMA_SetChannelSelection(DMA_TypeDef *DMAx, uint32_t Stream, uint32_t Channe
 269              		.loc 2 1033 22 discriminator 60 view .LVU64
 270              	.LBB45:
1034:Drivers/STM32F7xx_HAL_Driver/Inc/stm32f7xx_ll_dma.h **** {
1035:Drivers/STM32F7xx_HAL_Driver/Inc/stm32f7xx_ll_dma.h ****   MODIFY_REG(((DMA_Stream_TypeDef*)((uint32_t)((uint32_t)DMAx + STREAM_OFFSET_TAB[Stream])))->CR, D
 271              		.loc 2 1035 3 discriminator 60 view .LVU65
 272 010a 50F80C30 		ldr	r3, [r0, ip]
 273              	.LVL13:
 274              		.loc 2 1035 3 is_stmt 0 discriminator 60 view .LVU66
 275 010e 23F0F053 		bic	r3, r3, #503316480
 276 0112 40F80C30 		str	r3, [r0, ip]
 277              	.LVL14:
 278              		.loc 2 1035 3 discriminator 60 view .LVU67
 279              	.LBE45:
 280              	.LBE44:
 237:Drivers/STM32F7xx_HAL_Driver/Src/stm32f7xx_ll_dma.c ****     {
 281              		.loc 1 237 5 is_stmt 1 discriminator 60 view .LVU68
 237:Drivers/STM32F7xx_HAL_Driver/Src/stm32f7xx_ll_dma.c ****     {
 282              		.loc 1 237 7 is_stmt 0 discriminator 60 view .LVU69
 283 0116 F9B9     		cbnz	r1, .L6
 240:Drivers/STM32F7xx_HAL_Driver/Src/stm32f7xx_ll_dma.c ****     }
 284              		.loc 1 240 8 is_stmt 1 view .LVU70
 240:Drivers/STM32F7xx_HAL_Driver/Src/stm32f7xx_ll_dma.c ****     }
 285              		.loc 1 240 20 is_stmt 0 view .LVU71
 286 0118 3F23     		movs	r3, #63
 287 011a 8360     		str	r3, [r0, #8]
 180:Drivers/STM32F7xx_HAL_Driver/Src/stm32f7xx_ll_dma.c **** 
 288              		.loc 1 180 15 view .LVU72
 289 011c 0020     		movs	r0, #0
 290              	.LVL15:
ARM GAS  C:\Users\Giorgio\AppData\Local\Temp\ccg7jKJX.s 			page 39


 291              	.L4:
 283:Drivers/STM32F7xx_HAL_Driver/Src/stm32f7xx_ll_dma.c **** }
 292              		.loc 1 283 3 is_stmt 1 view .LVU73
 293              		.loc 1 284 1 is_stmt 0 view .LVU74
 294 011e 10BD     		pop	{r4, pc}
 295              	.LVL16:
 296              	.L15:
 214:Drivers/STM32F7xx_HAL_Driver/Src/stm32f7xx_ll_dma.c **** 
 297              		.loc 1 214 34 view .LVU75
 298 0120 2A4B     		ldr	r3, .L43+16
 299 0122 EAE7     		b	.L5
 300              	.L16:
 301 0124 2A4B     		ldr	r3, .L43+20
 302 0126 E8E7     		b	.L5
 303              	.L17:
 304 0128 2A4B     		ldr	r3, .L43+24
 305 012a E6E7     		b	.L5
 306              	.L18:
 307 012c 2A4B     		ldr	r3, .L43+28
 308 012e E4E7     		b	.L5
 309              	.L19:
 310 0130 2A4B     		ldr	r3, .L43+32
 311 0132 E2E7     		b	.L5
 312              	.L20:
 313 0134 2A4B     		ldr	r3, .L43+36
 314 0136 E0E7     		b	.L5
 315              	.L21:
 316 0138 2A4B     		ldr	r3, .L43+40
 317 013a DEE7     		b	.L5
 318              	.L22:
 319 013c 2A4B     		ldr	r3, .L43+44
 320 013e DCE7     		b	.L5
 321              	.L23:
 322 0140 2A4B     		ldr	r3, .L43+48
 323 0142 DAE7     		b	.L5
 324              	.L24:
 325 0144 2A4B     		ldr	r3, .L43+52
 326 0146 D8E7     		b	.L5
 327              	.L25:
 328 0148 2A4B     		ldr	r3, .L43+56
 329 014a D6E7     		b	.L5
 330              	.L26:
 331 014c 2A4B     		ldr	r3, .L43+60
 332 014e D4E7     		b	.L5
 333              	.L27:
 334 0150 2A4B     		ldr	r3, .L43+64
 335 0152 D2E7     		b	.L5
 336              	.L28:
 337 0154 2A4B     		ldr	r3, .L43+68
 338 0156 D0E7     		b	.L5
 339              	.LVL17:
 340              	.L6:
 242:Drivers/STM32F7xx_HAL_Driver/Src/stm32f7xx_ll_dma.c ****     {
 341              		.loc 1 242 10 is_stmt 1 view .LVU76
 242:Drivers/STM32F7xx_HAL_Driver/Src/stm32f7xx_ll_dma.c ****     {
 342              		.loc 1 242 12 is_stmt 0 view .LVU77
 343 0158 0129     		cmp	r1, #1
ARM GAS  C:\Users\Giorgio\AppData\Local\Temp\ccg7jKJX.s 			page 40


 344 015a 0DD0     		beq	.L36
 247:Drivers/STM32F7xx_HAL_Driver/Src/stm32f7xx_ll_dma.c ****     {
 345              		.loc 1 247 10 is_stmt 1 view .LVU78
 247:Drivers/STM32F7xx_HAL_Driver/Src/stm32f7xx_ll_dma.c ****     {
 346              		.loc 1 247 12 is_stmt 0 view .LVU79
 347 015c 0229     		cmp	r1, #2
 348 015e 10D0     		beq	.L37
 252:Drivers/STM32F7xx_HAL_Driver/Src/stm32f7xx_ll_dma.c ****     {
 349              		.loc 1 252 10 is_stmt 1 view .LVU80
 252:Drivers/STM32F7xx_HAL_Driver/Src/stm32f7xx_ll_dma.c ****     {
 350              		.loc 1 252 12 is_stmt 0 view .LVU81
 351 0160 0329     		cmp	r1, #3
 352 0162 13D0     		beq	.L38
 257:Drivers/STM32F7xx_HAL_Driver/Src/stm32f7xx_ll_dma.c ****     {
 353              		.loc 1 257 10 is_stmt 1 view .LVU82
 257:Drivers/STM32F7xx_HAL_Driver/Src/stm32f7xx_ll_dma.c ****     {
 354              		.loc 1 257 12 is_stmt 0 view .LVU83
 355 0164 0429     		cmp	r1, #4
 356 0166 16D0     		beq	.L39
 262:Drivers/STM32F7xx_HAL_Driver/Src/stm32f7xx_ll_dma.c ****     {
 357              		.loc 1 262 10 is_stmt 1 view .LVU84
 262:Drivers/STM32F7xx_HAL_Driver/Src/stm32f7xx_ll_dma.c ****     {
 358              		.loc 1 262 12 is_stmt 0 view .LVU85
 359 0168 0529     		cmp	r1, #5
 360 016a 18D0     		beq	.L40
 267:Drivers/STM32F7xx_HAL_Driver/Src/stm32f7xx_ll_dma.c ****     {
 361              		.loc 1 267 10 is_stmt 1 view .LVU86
 267:Drivers/STM32F7xx_HAL_Driver/Src/stm32f7xx_ll_dma.c ****     {
 362              		.loc 1 267 12 is_stmt 0 view .LVU87
 363 016c 0629     		cmp	r1, #6
 364 016e 1BD0     		beq	.L41
 272:Drivers/STM32F7xx_HAL_Driver/Src/stm32f7xx_ll_dma.c ****     {
 365              		.loc 1 272 10 is_stmt 1 view .LVU88
 272:Drivers/STM32F7xx_HAL_Driver/Src/stm32f7xx_ll_dma.c ****     {
 366              		.loc 1 272 12 is_stmt 0 view .LVU89
 367 0170 0729     		cmp	r1, #7
 368 0172 1ED0     		beq	.L42
 279:Drivers/STM32F7xx_HAL_Driver/Src/stm32f7xx_ll_dma.c ****     }
 369              		.loc 1 279 14 view .LVU90
 370 0174 0120     		movs	r0, #1
 371              	.LVL18:
 279:Drivers/STM32F7xx_HAL_Driver/Src/stm32f7xx_ll_dma.c ****     }
 372              		.loc 1 279 14 view .LVU91
 373 0176 D2E7     		b	.L4
 374              	.LVL19:
 375              	.L36:
 245:Drivers/STM32F7xx_HAL_Driver/Src/stm32f7xx_ll_dma.c ****     }
 376              		.loc 1 245 8 is_stmt 1 view .LVU92
 245:Drivers/STM32F7xx_HAL_Driver/Src/stm32f7xx_ll_dma.c ****     }
 377              		.loc 1 245 20 is_stmt 0 view .LVU93
 378 0178 4FF47463 		mov	r3, #3904
 379 017c 8360     		str	r3, [r0, #8]
 180:Drivers/STM32F7xx_HAL_Driver/Src/stm32f7xx_ll_dma.c **** 
 380              		.loc 1 180 15 view .LVU94
 381 017e 0020     		movs	r0, #0
 382              	.LVL20:
 180:Drivers/STM32F7xx_HAL_Driver/Src/stm32f7xx_ll_dma.c **** 
ARM GAS  C:\Users\Giorgio\AppData\Local\Temp\ccg7jKJX.s 			page 41


 383              		.loc 1 180 15 view .LVU95
 384 0180 CDE7     		b	.L4
 385              	.LVL21:
 386              	.L37:
 250:Drivers/STM32F7xx_HAL_Driver/Src/stm32f7xx_ll_dma.c ****     }
 387              		.loc 1 250 8 is_stmt 1 view .LVU96
 250:Drivers/STM32F7xx_HAL_Driver/Src/stm32f7xx_ll_dma.c ****     }
 388              		.loc 1 250 20 is_stmt 0 view .LVU97
 389 0182 4FF47C13 		mov	r3, #4128768
 390 0186 8360     		str	r3, [r0, #8]
 180:Drivers/STM32F7xx_HAL_Driver/Src/stm32f7xx_ll_dma.c **** 
 391              		.loc 1 180 15 view .LVU98
 392 0188 0020     		movs	r0, #0
 393              	.LVL22:
 180:Drivers/STM32F7xx_HAL_Driver/Src/stm32f7xx_ll_dma.c **** 
 394              		.loc 1 180 15 view .LVU99
 395 018a C8E7     		b	.L4
 396              	.LVL23:
 397              	.L38:
 255:Drivers/STM32F7xx_HAL_Driver/Src/stm32f7xx_ll_dma.c ****     }
 398              		.loc 1 255 8 is_stmt 1 view .LVU100
 255:Drivers/STM32F7xx_HAL_Driver/Src/stm32f7xx_ll_dma.c ****     }
 399              		.loc 1 255 20 is_stmt 0 view .LVU101
 400 018c 4FF07463 		mov	r3, #255852544
 401 0190 8360     		str	r3, [r0, #8]
 180:Drivers/STM32F7xx_HAL_Driver/Src/stm32f7xx_ll_dma.c **** 
 402              		.loc 1 180 15 view .LVU102
 403 0192 0020     		movs	r0, #0
 404              	.LVL24:
 180:Drivers/STM32F7xx_HAL_Driver/Src/stm32f7xx_ll_dma.c **** 
 405              		.loc 1 180 15 view .LVU103
 406 0194 C3E7     		b	.L4
 407              	.LVL25:
 408              	.L39:
 260:Drivers/STM32F7xx_HAL_Driver/Src/stm32f7xx_ll_dma.c ****     }
 409              		.loc 1 260 8 is_stmt 1 view .LVU104
 260:Drivers/STM32F7xx_HAL_Driver/Src/stm32f7xx_ll_dma.c ****     }
 410              		.loc 1 260 20 is_stmt 0 view .LVU105
 411 0196 3F23     		movs	r3, #63
 412 0198 C360     		str	r3, [r0, #12]
 180:Drivers/STM32F7xx_HAL_Driver/Src/stm32f7xx_ll_dma.c **** 
 413              		.loc 1 180 15 view .LVU106
 414 019a 0020     		movs	r0, #0
 415              	.LVL26:
 180:Drivers/STM32F7xx_HAL_Driver/Src/stm32f7xx_ll_dma.c **** 
 416              		.loc 1 180 15 view .LVU107
 417 019c BFE7     		b	.L4
 418              	.LVL27:
 419              	.L40:
 265:Drivers/STM32F7xx_HAL_Driver/Src/stm32f7xx_ll_dma.c ****     }
 420              		.loc 1 265 8 is_stmt 1 view .LVU108
 265:Drivers/STM32F7xx_HAL_Driver/Src/stm32f7xx_ll_dma.c ****     }
 421              		.loc 1 265 20 is_stmt 0 view .LVU109
 422 019e 4FF47463 		mov	r3, #3904
 423 01a2 C360     		str	r3, [r0, #12]
 180:Drivers/STM32F7xx_HAL_Driver/Src/stm32f7xx_ll_dma.c **** 
 424              		.loc 1 180 15 view .LVU110
ARM GAS  C:\Users\Giorgio\AppData\Local\Temp\ccg7jKJX.s 			page 42


 425 01a4 0020     		movs	r0, #0
 426              	.LVL28:
 180:Drivers/STM32F7xx_HAL_Driver/Src/stm32f7xx_ll_dma.c **** 
 427              		.loc 1 180 15 view .LVU111
 428 01a6 BAE7     		b	.L4
 429              	.LVL29:
 430              	.L41:
 270:Drivers/STM32F7xx_HAL_Driver/Src/stm32f7xx_ll_dma.c ****     }
 431              		.loc 1 270 8 is_stmt 1 view .LVU112
 270:Drivers/STM32F7xx_HAL_Driver/Src/stm32f7xx_ll_dma.c ****     }
 432              		.loc 1 270 20 is_stmt 0 view .LVU113
 433 01a8 4FF47C13 		mov	r3, #4128768
 434 01ac C360     		str	r3, [r0, #12]
 180:Drivers/STM32F7xx_HAL_Driver/Src/stm32f7xx_ll_dma.c **** 
 435              		.loc 1 180 15 view .LVU114
 436 01ae 0020     		movs	r0, #0
 437              	.LVL30:
 180:Drivers/STM32F7xx_HAL_Driver/Src/stm32f7xx_ll_dma.c **** 
 438              		.loc 1 180 15 view .LVU115
 439 01b0 B5E7     		b	.L4
 440              	.LVL31:
 441              	.L42:
 275:Drivers/STM32F7xx_HAL_Driver/Src/stm32f7xx_ll_dma.c ****     }
 442              		.loc 1 275 8 is_stmt 1 view .LVU116
 275:Drivers/STM32F7xx_HAL_Driver/Src/stm32f7xx_ll_dma.c ****     }
 443              		.loc 1 275 20 is_stmt 0 view .LVU117
 444 01b2 4FF07463 		mov	r3, #255852544
 445 01b6 C360     		str	r3, [r0, #12]
 180:Drivers/STM32F7xx_HAL_Driver/Src/stm32f7xx_ll_dma.c **** 
 446              		.loc 1 180 15 view .LVU118
 447 01b8 0020     		movs	r0, #0
 448              	.LVL32:
 180:Drivers/STM32F7xx_HAL_Driver/Src/stm32f7xx_ll_dma.c **** 
 449              		.loc 1 180 15 view .LVU119
 450 01ba B0E7     		b	.L4
 451              	.L44:
 452              		.align	2
 453              	.L43:
 454 01bc 00000000 		.word	.LANCHOR0
 455 01c0 00600240 		.word	1073897472
 456 01c4 00640240 		.word	1073898496
 457 01c8 10600240 		.word	1073897488
 458 01cc 10640240 		.word	1073898512
 459 01d0 28600240 		.word	1073897512
 460 01d4 28640240 		.word	1073898536
 461 01d8 40600240 		.word	1073897536
 462 01dc 40640240 		.word	1073898560
 463 01e0 58600240 		.word	1073897560
 464 01e4 58640240 		.word	1073898584
 465 01e8 70600240 		.word	1073897584
 466 01ec 70640240 		.word	1073898608
 467 01f0 88600240 		.word	1073897608
 468 01f4 88640240 		.word	1073898632
 469 01f8 A0600240 		.word	1073897632
 470 01fc A0640240 		.word	1073898656
 471 0200 B8640240 		.word	1073898680
 472              		.cfi_endproc
ARM GAS  C:\Users\Giorgio\AppData\Local\Temp\ccg7jKJX.s 			page 43


 473              	.LFE320:
 475              		.section	.text.LL_DMA_Init,"ax",%progbits
 476              		.align	1
 477              		.global	LL_DMA_Init
 478              		.syntax unified
 479              		.thumb
 480              		.thumb_func
 481              		.fpu fpv5-d16
 483              	LL_DMA_Init:
 484              	.LVL33:
 485              	.LFB321:
 285:Drivers/STM32F7xx_HAL_Driver/Src/stm32f7xx_ll_dma.c **** 
 286:Drivers/STM32F7xx_HAL_Driver/Src/stm32f7xx_ll_dma.c **** /**
 287:Drivers/STM32F7xx_HAL_Driver/Src/stm32f7xx_ll_dma.c ****   * @brief  Initialize the DMA registers according to the specified parameters in DMA_InitStruct.
 288:Drivers/STM32F7xx_HAL_Driver/Src/stm32f7xx_ll_dma.c ****   * @note   To convert DMAx_Streamy Instance to DMAx Instance and Streamy, use helper macros :
 289:Drivers/STM32F7xx_HAL_Driver/Src/stm32f7xx_ll_dma.c ****   *         @arg @ref __LL_DMA_GET_INSTANCE
 290:Drivers/STM32F7xx_HAL_Driver/Src/stm32f7xx_ll_dma.c ****   *         @arg @ref __LL_DMA_GET_STREAM
 291:Drivers/STM32F7xx_HAL_Driver/Src/stm32f7xx_ll_dma.c ****   * @param  DMAx DMAx Instance
 292:Drivers/STM32F7xx_HAL_Driver/Src/stm32f7xx_ll_dma.c ****   * @param  Stream This parameter can be one of the following values:
 293:Drivers/STM32F7xx_HAL_Driver/Src/stm32f7xx_ll_dma.c ****   *         @arg @ref LL_DMA_STREAM_0
 294:Drivers/STM32F7xx_HAL_Driver/Src/stm32f7xx_ll_dma.c ****   *         @arg @ref LL_DMA_STREAM_1
 295:Drivers/STM32F7xx_HAL_Driver/Src/stm32f7xx_ll_dma.c ****   *         @arg @ref LL_DMA_STREAM_2
 296:Drivers/STM32F7xx_HAL_Driver/Src/stm32f7xx_ll_dma.c ****   *         @arg @ref LL_DMA_STREAM_3
 297:Drivers/STM32F7xx_HAL_Driver/Src/stm32f7xx_ll_dma.c ****   *         @arg @ref LL_DMA_STREAM_4
 298:Drivers/STM32F7xx_HAL_Driver/Src/stm32f7xx_ll_dma.c ****   *         @arg @ref LL_DMA_STREAM_5
 299:Drivers/STM32F7xx_HAL_Driver/Src/stm32f7xx_ll_dma.c ****   *         @arg @ref LL_DMA_STREAM_6
 300:Drivers/STM32F7xx_HAL_Driver/Src/stm32f7xx_ll_dma.c ****   *         @arg @ref LL_DMA_STREAM_7
 301:Drivers/STM32F7xx_HAL_Driver/Src/stm32f7xx_ll_dma.c ****   * @param  DMA_InitStruct pointer to a @ref LL_DMA_InitTypeDef structure.
 302:Drivers/STM32F7xx_HAL_Driver/Src/stm32f7xx_ll_dma.c ****   * @retval An ErrorStatus enumeration value:
 303:Drivers/STM32F7xx_HAL_Driver/Src/stm32f7xx_ll_dma.c ****   *          - SUCCESS: DMA registers are initialized
 304:Drivers/STM32F7xx_HAL_Driver/Src/stm32f7xx_ll_dma.c ****   *          - ERROR: Not applicable
 305:Drivers/STM32F7xx_HAL_Driver/Src/stm32f7xx_ll_dma.c ****   */
 306:Drivers/STM32F7xx_HAL_Driver/Src/stm32f7xx_ll_dma.c **** uint32_t LL_DMA_Init(DMA_TypeDef *DMAx, uint32_t Stream, LL_DMA_InitTypeDef *DMA_InitStruct)
 307:Drivers/STM32F7xx_HAL_Driver/Src/stm32f7xx_ll_dma.c **** {
 486              		.loc 1 307 1 is_stmt 1 view -0
 487              		.cfi_startproc
 488              		@ args = 0, pretend = 0, frame = 0
 489              		@ frame_needed = 0, uses_anonymous_args = 0
 490              		@ link register save eliminated.
 491              		.loc 1 307 1 is_stmt 0 view .LVU121
 492 0000 30B4     		push	{r4, r5}
 493              	.LCFI3:
 494              		.cfi_def_cfa_offset 8
 495              		.cfi_offset 4, -8
 496              		.cfi_offset 5, -4
 308:Drivers/STM32F7xx_HAL_Driver/Src/stm32f7xx_ll_dma.c ****   /* Check the DMA Instance DMAx and Stream parameters*/
 309:Drivers/STM32F7xx_HAL_Driver/Src/stm32f7xx_ll_dma.c ****   assert_param(IS_LL_DMA_ALL_STREAM_INSTANCE(DMAx, Stream));
 497              		.loc 1 309 3 is_stmt 1 view .LVU122
 310:Drivers/STM32F7xx_HAL_Driver/Src/stm32f7xx_ll_dma.c **** 
 311:Drivers/STM32F7xx_HAL_Driver/Src/stm32f7xx_ll_dma.c ****   /* Check the DMA parameters from DMA_InitStruct */
 312:Drivers/STM32F7xx_HAL_Driver/Src/stm32f7xx_ll_dma.c ****   assert_param(IS_LL_DMA_DIRECTION(DMA_InitStruct->Direction));
 498              		.loc 1 312 3 view .LVU123
 313:Drivers/STM32F7xx_HAL_Driver/Src/stm32f7xx_ll_dma.c ****   assert_param(IS_LL_DMA_MODE(DMA_InitStruct->Mode));
 499              		.loc 1 313 3 view .LVU124
 314:Drivers/STM32F7xx_HAL_Driver/Src/stm32f7xx_ll_dma.c ****   assert_param(IS_LL_DMA_PERIPHINCMODE(DMA_InitStruct->PeriphOrM2MSrcIncMode));
 500              		.loc 1 314 3 view .LVU125
 315:Drivers/STM32F7xx_HAL_Driver/Src/stm32f7xx_ll_dma.c ****   assert_param(IS_LL_DMA_MEMORYINCMODE(DMA_InitStruct->MemoryOrM2MDstIncMode));
ARM GAS  C:\Users\Giorgio\AppData\Local\Temp\ccg7jKJX.s 			page 44


 501              		.loc 1 315 3 view .LVU126
 316:Drivers/STM32F7xx_HAL_Driver/Src/stm32f7xx_ll_dma.c ****   assert_param(IS_LL_DMA_PERIPHDATASIZE(DMA_InitStruct->PeriphOrM2MSrcDataSize));
 502              		.loc 1 316 3 view .LVU127
 317:Drivers/STM32F7xx_HAL_Driver/Src/stm32f7xx_ll_dma.c ****   assert_param(IS_LL_DMA_MEMORYDATASIZE(DMA_InitStruct->MemoryOrM2MDstDataSize));
 503              		.loc 1 317 3 view .LVU128
 318:Drivers/STM32F7xx_HAL_Driver/Src/stm32f7xx_ll_dma.c ****   assert_param(IS_LL_DMA_NBDATA(DMA_InitStruct->NbData));
 504              		.loc 1 318 3 view .LVU129
 319:Drivers/STM32F7xx_HAL_Driver/Src/stm32f7xx_ll_dma.c ****   assert_param(IS_LL_DMA_CHANNEL(DMA_InitStruct->Channel));
 505              		.loc 1 319 3 view .LVU130
 320:Drivers/STM32F7xx_HAL_Driver/Src/stm32f7xx_ll_dma.c ****   assert_param(IS_LL_DMA_PRIORITY(DMA_InitStruct->Priority));
 506              		.loc 1 320 3 view .LVU131
 321:Drivers/STM32F7xx_HAL_Driver/Src/stm32f7xx_ll_dma.c ****   assert_param(IS_LL_DMA_FIFO_MODE_STATE(DMA_InitStruct->FIFOMode));
 507              		.loc 1 321 3 view .LVU132
 322:Drivers/STM32F7xx_HAL_Driver/Src/stm32f7xx_ll_dma.c ****   /* Check the memory burst, peripheral burst and FIFO threshold parameters only
 323:Drivers/STM32F7xx_HAL_Driver/Src/stm32f7xx_ll_dma.c ****      when FIFO mode is enabled */
 324:Drivers/STM32F7xx_HAL_Driver/Src/stm32f7xx_ll_dma.c ****   if(DMA_InitStruct->FIFOMode != LL_DMA_FIFOMODE_DISABLE)
 508              		.loc 1 324 3 view .LVU133
 325:Drivers/STM32F7xx_HAL_Driver/Src/stm32f7xx_ll_dma.c ****   {
 326:Drivers/STM32F7xx_HAL_Driver/Src/stm32f7xx_ll_dma.c ****     assert_param(IS_LL_DMA_FIFO_THRESHOLD(DMA_InitStruct->FIFOThreshold));
 509              		.loc 1 326 5 view .LVU134
 327:Drivers/STM32F7xx_HAL_Driver/Src/stm32f7xx_ll_dma.c ****     assert_param(IS_LL_DMA_MEMORY_BURST(DMA_InitStruct->MemBurst));
 510              		.loc 1 327 5 view .LVU135
 328:Drivers/STM32F7xx_HAL_Driver/Src/stm32f7xx_ll_dma.c ****     assert_param(IS_LL_DMA_PERIPHERAL_BURST(DMA_InitStruct->PeriphBurst));
 511              		.loc 1 328 5 view .LVU136
 329:Drivers/STM32F7xx_HAL_Driver/Src/stm32f7xx_ll_dma.c ****   }
 330:Drivers/STM32F7xx_HAL_Driver/Src/stm32f7xx_ll_dma.c **** 
 331:Drivers/STM32F7xx_HAL_Driver/Src/stm32f7xx_ll_dma.c ****   /*---------------------------- DMAx SxCR Configuration ------------------------
 332:Drivers/STM32F7xx_HAL_Driver/Src/stm32f7xx_ll_dma.c ****    * Configure DMAx_Streamy: data transfer direction, data transfer mode,
 333:Drivers/STM32F7xx_HAL_Driver/Src/stm32f7xx_ll_dma.c ****    *                          peripheral and memory increment mode,
 334:Drivers/STM32F7xx_HAL_Driver/Src/stm32f7xx_ll_dma.c ****    *                          data size alignment and  priority level with parameters :
 335:Drivers/STM32F7xx_HAL_Driver/Src/stm32f7xx_ll_dma.c ****    * - Direction:      DMA_SxCR_DIR[1:0] bits
 336:Drivers/STM32F7xx_HAL_Driver/Src/stm32f7xx_ll_dma.c ****    * - Mode:           DMA_SxCR_CIRC bit
 337:Drivers/STM32F7xx_HAL_Driver/Src/stm32f7xx_ll_dma.c ****    * - PeriphOrM2MSrcIncMode:  DMA_SxCR_PINC bit
 338:Drivers/STM32F7xx_HAL_Driver/Src/stm32f7xx_ll_dma.c ****    * - MemoryOrM2MDstIncMode:  DMA_SxCR_MINC bit
 339:Drivers/STM32F7xx_HAL_Driver/Src/stm32f7xx_ll_dma.c ****    * - PeriphOrM2MSrcDataSize: DMA_SxCR_PSIZE[1:0] bits
 340:Drivers/STM32F7xx_HAL_Driver/Src/stm32f7xx_ll_dma.c ****    * - MemoryOrM2MDstDataSize: DMA_SxCR_MSIZE[1:0] bits
 341:Drivers/STM32F7xx_HAL_Driver/Src/stm32f7xx_ll_dma.c ****    * - Priority:               DMA_SxCR_PL[1:0] bits
 342:Drivers/STM32F7xx_HAL_Driver/Src/stm32f7xx_ll_dma.c ****    */
 343:Drivers/STM32F7xx_HAL_Driver/Src/stm32f7xx_ll_dma.c ****   LL_DMA_ConfigTransfer(DMAx, Stream, DMA_InitStruct->Direction | \
 512              		.loc 1 343 3 view .LVU137
 513              		.loc 1 343 53 is_stmt 0 view .LVU138
 514 0002 9368     		ldr	r3, [r2, #8]
 344:Drivers/STM32F7xx_HAL_Driver/Src/stm32f7xx_ll_dma.c ****                         DMA_InitStruct->Mode                    | \
 515              		.loc 1 344 39 view .LVU139
 516 0004 D468     		ldr	r4, [r2, #12]
 343:Drivers/STM32F7xx_HAL_Driver/Src/stm32f7xx_ll_dma.c ****                         DMA_InitStruct->Mode                    | \
 517              		.loc 1 343 65 view .LVU140
 518 0006 2343     		orrs	r3, r3, r4
 345:Drivers/STM32F7xx_HAL_Driver/Src/stm32f7xx_ll_dma.c ****                         DMA_InitStruct->PeriphOrM2MSrcIncMode   | \
 519              		.loc 1 345 39 view .LVU141
 520 0008 1469     		ldr	r4, [r2, #16]
 344:Drivers/STM32F7xx_HAL_Driver/Src/stm32f7xx_ll_dma.c ****                         DMA_InitStruct->Mode                    | \
 521              		.loc 1 344 65 view .LVU142
 522 000a 2343     		orrs	r3, r3, r4
 346:Drivers/STM32F7xx_HAL_Driver/Src/stm32f7xx_ll_dma.c ****                         DMA_InitStruct->MemoryOrM2MDstIncMode   | \
 523              		.loc 1 346 39 view .LVU143
 524 000c 5469     		ldr	r4, [r2, #20]
ARM GAS  C:\Users\Giorgio\AppData\Local\Temp\ccg7jKJX.s 			page 45


 345:Drivers/STM32F7xx_HAL_Driver/Src/stm32f7xx_ll_dma.c ****                         DMA_InitStruct->PeriphOrM2MSrcIncMode   | \
 525              		.loc 1 345 65 view .LVU144
 526 000e 2343     		orrs	r3, r3, r4
 347:Drivers/STM32F7xx_HAL_Driver/Src/stm32f7xx_ll_dma.c ****                         DMA_InitStruct->PeriphOrM2MSrcDataSize  | \
 527              		.loc 1 347 39 view .LVU145
 528 0010 9469     		ldr	r4, [r2, #24]
 346:Drivers/STM32F7xx_HAL_Driver/Src/stm32f7xx_ll_dma.c ****                         DMA_InitStruct->MemoryOrM2MDstIncMode   | \
 529              		.loc 1 346 65 view .LVU146
 530 0012 2343     		orrs	r3, r3, r4
 348:Drivers/STM32F7xx_HAL_Driver/Src/stm32f7xx_ll_dma.c ****                         DMA_InitStruct->MemoryOrM2MDstDataSize  | \
 531              		.loc 1 348 39 view .LVU147
 532 0014 D469     		ldr	r4, [r2, #28]
 347:Drivers/STM32F7xx_HAL_Driver/Src/stm32f7xx_ll_dma.c ****                         DMA_InitStruct->PeriphOrM2MSrcDataSize  | \
 533              		.loc 1 347 65 view .LVU148
 534 0016 2343     		orrs	r3, r3, r4
 349:Drivers/STM32F7xx_HAL_Driver/Src/stm32f7xx_ll_dma.c ****                         DMA_InitStruct->Priority
 535              		.loc 1 349 39 view .LVU149
 536 0018 946A     		ldr	r4, [r2, #40]
 343:Drivers/STM32F7xx_HAL_Driver/Src/stm32f7xx_ll_dma.c ****                         DMA_InitStruct->Mode                    | \
 537              		.loc 1 343 3 view .LVU150
 538 001a 2343     		orrs	r3, r3, r4
 539              	.LVL34:
 540              	.LBB46:
 541              	.LBI46:
 573:Drivers/STM32F7xx_HAL_Driver/Inc/stm32f7xx_ll_dma.h **** {
 542              		.loc 2 573 22 is_stmt 1 view .LVU151
 543              	.LBB47:
 575:Drivers/STM32F7xx_HAL_Driver/Inc/stm32f7xx_ll_dma.h ****              DMA_SxCR_DIR | DMA_SxCR_CIRC | DMA_SxCR_PINC | DMA_SxCR_MINC | DMA_SxCR_PSIZE | DMA_Sx
 544              		.loc 2 575 3 view .LVU152
 545 001c 1B4C     		ldr	r4, .L48
 546 001e 615C     		ldrb	r1, [r4, r1]	@ zero_extendqisi2
 547              	.LVL35:
 575:Drivers/STM32F7xx_HAL_Driver/Inc/stm32f7xx_ll_dma.h ****              DMA_SxCR_DIR | DMA_SxCR_CIRC | DMA_SxCR_PINC | DMA_SxCR_MINC | DMA_SxCR_PSIZE | DMA_Sx
 548              		.loc 2 575 3 is_stmt 0 view .LVU153
 549 0020 01EB000C 		add	ip, r1, r0
 550 0024 0D58     		ldr	r5, [r1, r0]
 551 0026 1A4C     		ldr	r4, .L48+4
 552 0028 2C40     		ands	r4, r4, r5
 553 002a 2343     		orrs	r3, r3, r4
 554              	.LVL36:
 575:Drivers/STM32F7xx_HAL_Driver/Inc/stm32f7xx_ll_dma.h ****              DMA_SxCR_DIR | DMA_SxCR_CIRC | DMA_SxCR_PINC | DMA_SxCR_MINC | DMA_SxCR_PSIZE | DMA_Sx
 555              		.loc 2 575 3 view .LVU154
 556 002c 0B50     		str	r3, [r1, r0]
 557              	.LVL37:
 575:Drivers/STM32F7xx_HAL_Driver/Inc/stm32f7xx_ll_dma.h ****              DMA_SxCR_DIR | DMA_SxCR_CIRC | DMA_SxCR_PINC | DMA_SxCR_MINC | DMA_SxCR_PSIZE | DMA_Sx
 558              		.loc 2 575 3 view .LVU155
 559              	.LBE47:
 560              	.LBE46:
 350:Drivers/STM32F7xx_HAL_Driver/Src/stm32f7xx_ll_dma.c ****                         );
 351:Drivers/STM32F7xx_HAL_Driver/Src/stm32f7xx_ll_dma.c **** 
 352:Drivers/STM32F7xx_HAL_Driver/Src/stm32f7xx_ll_dma.c ****   if(DMA_InitStruct->FIFOMode != LL_DMA_FIFOMODE_DISABLE)
 561              		.loc 1 352 3 is_stmt 1 view .LVU156
 562              		.loc 1 352 20 is_stmt 0 view .LVU157
 563 002e D36A     		ldr	r3, [r2, #44]
 564              		.loc 1 352 5 view .LVU158
 565 0030 A3B1     		cbz	r3, .L46
 353:Drivers/STM32F7xx_HAL_Driver/Src/stm32f7xx_ll_dma.c ****   {
ARM GAS  C:\Users\Giorgio\AppData\Local\Temp\ccg7jKJX.s 			page 46


 354:Drivers/STM32F7xx_HAL_Driver/Src/stm32f7xx_ll_dma.c ****     /*---------------------------- DMAx SxFCR Configuration ------------------------
 355:Drivers/STM32F7xx_HAL_Driver/Src/stm32f7xx_ll_dma.c ****      * Configure DMAx_Streamy:  fifo mode and fifo threshold with parameters :
 356:Drivers/STM32F7xx_HAL_Driver/Src/stm32f7xx_ll_dma.c ****      * - FIFOMode:                DMA_SxFCR_DMDIS bit
 357:Drivers/STM32F7xx_HAL_Driver/Src/stm32f7xx_ll_dma.c ****      * - FIFOThreshold:           DMA_SxFCR_FTH[1:0] bits
 358:Drivers/STM32F7xx_HAL_Driver/Src/stm32f7xx_ll_dma.c ****      */
 359:Drivers/STM32F7xx_HAL_Driver/Src/stm32f7xx_ll_dma.c ****     LL_DMA_ConfigFifo(DMAx, Stream, DMA_InitStruct->FIFOMode, DMA_InitStruct->FIFOThreshold);   
 566              		.loc 1 359 5 is_stmt 1 view .LVU159
 567 0032 156B     		ldr	r5, [r2, #48]
 568              	.LVL38:
 569              	.LBB48:
 570              	.LBI48:
1036:Drivers/STM32F7xx_HAL_Driver/Inc/stm32f7xx_ll_dma.h **** }
1037:Drivers/STM32F7xx_HAL_Driver/Inc/stm32f7xx_ll_dma.h **** 
1038:Drivers/STM32F7xx_HAL_Driver/Inc/stm32f7xx_ll_dma.h **** /**
1039:Drivers/STM32F7xx_HAL_Driver/Inc/stm32f7xx_ll_dma.h ****   * @brief Get the Channel number associated to the Stream.
1040:Drivers/STM32F7xx_HAL_Driver/Inc/stm32f7xx_ll_dma.h ****   * @rmtoll CR          CHSEL           LL_DMA_GetChannelSelection
1041:Drivers/STM32F7xx_HAL_Driver/Inc/stm32f7xx_ll_dma.h ****   * @param  DMAx DMAx Instance
1042:Drivers/STM32F7xx_HAL_Driver/Inc/stm32f7xx_ll_dma.h ****   * @param  Stream This parameter can be one of the following values:
1043:Drivers/STM32F7xx_HAL_Driver/Inc/stm32f7xx_ll_dma.h ****   *         @arg @ref LL_DMA_STREAM_0
1044:Drivers/STM32F7xx_HAL_Driver/Inc/stm32f7xx_ll_dma.h ****   *         @arg @ref LL_DMA_STREAM_1
1045:Drivers/STM32F7xx_HAL_Driver/Inc/stm32f7xx_ll_dma.h ****   *         @arg @ref LL_DMA_STREAM_2
1046:Drivers/STM32F7xx_HAL_Driver/Inc/stm32f7xx_ll_dma.h ****   *         @arg @ref LL_DMA_STREAM_3
1047:Drivers/STM32F7xx_HAL_Driver/Inc/stm32f7xx_ll_dma.h ****   *         @arg @ref LL_DMA_STREAM_4
1048:Drivers/STM32F7xx_HAL_Driver/Inc/stm32f7xx_ll_dma.h ****   *         @arg @ref LL_DMA_STREAM_5
1049:Drivers/STM32F7xx_HAL_Driver/Inc/stm32f7xx_ll_dma.h ****   *         @arg @ref LL_DMA_STREAM_6
1050:Drivers/STM32F7xx_HAL_Driver/Inc/stm32f7xx_ll_dma.h ****   *         @arg @ref LL_DMA_STREAM_7
1051:Drivers/STM32F7xx_HAL_Driver/Inc/stm32f7xx_ll_dma.h ****   * @retval Returned value can be one of the following values:
1052:Drivers/STM32F7xx_HAL_Driver/Inc/stm32f7xx_ll_dma.h ****   *         @arg @ref LL_DMA_CHANNEL_0
1053:Drivers/STM32F7xx_HAL_Driver/Inc/stm32f7xx_ll_dma.h ****   *         @arg @ref LL_DMA_CHANNEL_1
1054:Drivers/STM32F7xx_HAL_Driver/Inc/stm32f7xx_ll_dma.h ****   *         @arg @ref LL_DMA_CHANNEL_2
1055:Drivers/STM32F7xx_HAL_Driver/Inc/stm32f7xx_ll_dma.h ****   *         @arg @ref LL_DMA_CHANNEL_3
1056:Drivers/STM32F7xx_HAL_Driver/Inc/stm32f7xx_ll_dma.h ****   *         @arg @ref LL_DMA_CHANNEL_4
1057:Drivers/STM32F7xx_HAL_Driver/Inc/stm32f7xx_ll_dma.h ****   *         @arg @ref LL_DMA_CHANNEL_5
1058:Drivers/STM32F7xx_HAL_Driver/Inc/stm32f7xx_ll_dma.h ****   *         @arg @ref LL_DMA_CHANNEL_6
1059:Drivers/STM32F7xx_HAL_Driver/Inc/stm32f7xx_ll_dma.h ****   *         @arg @ref LL_DMA_CHANNEL_7
1060:Drivers/STM32F7xx_HAL_Driver/Inc/stm32f7xx_ll_dma.h ****   *         @arg @ref LL_DMA_CHANNEL_8 (*)
1061:Drivers/STM32F7xx_HAL_Driver/Inc/stm32f7xx_ll_dma.h ****   *         @arg @ref LL_DMA_CHANNEL_9 (*)
1062:Drivers/STM32F7xx_HAL_Driver/Inc/stm32f7xx_ll_dma.h ****   *         @arg @ref LL_DMA_CHANNEL_10 (*)
1063:Drivers/STM32F7xx_HAL_Driver/Inc/stm32f7xx_ll_dma.h ****   *         @arg @ref LL_DMA_CHANNEL_11 (*)
1064:Drivers/STM32F7xx_HAL_Driver/Inc/stm32f7xx_ll_dma.h ****   *         @arg @ref LL_DMA_CHANNEL_12 (*)
1065:Drivers/STM32F7xx_HAL_Driver/Inc/stm32f7xx_ll_dma.h ****   *         @arg @ref LL_DMA_CHANNEL_13 (*)
1066:Drivers/STM32F7xx_HAL_Driver/Inc/stm32f7xx_ll_dma.h ****   *         @arg @ref LL_DMA_CHANNEL_14 (*)
1067:Drivers/STM32F7xx_HAL_Driver/Inc/stm32f7xx_ll_dma.h ****   *         @arg @ref LL_DMA_CHANNEL_15 (*)
1068:Drivers/STM32F7xx_HAL_Driver/Inc/stm32f7xx_ll_dma.h ****   *
1069:Drivers/STM32F7xx_HAL_Driver/Inc/stm32f7xx_ll_dma.h ****   *         (*) value not defined in all devices.
1070:Drivers/STM32F7xx_HAL_Driver/Inc/stm32f7xx_ll_dma.h ****   */
1071:Drivers/STM32F7xx_HAL_Driver/Inc/stm32f7xx_ll_dma.h **** __STATIC_INLINE uint32_t LL_DMA_GetChannelSelection(DMA_TypeDef *DMAx, uint32_t Stream)
1072:Drivers/STM32F7xx_HAL_Driver/Inc/stm32f7xx_ll_dma.h **** {
1073:Drivers/STM32F7xx_HAL_Driver/Inc/stm32f7xx_ll_dma.h ****   return (READ_BIT(((DMA_Stream_TypeDef*)((uint32_t)((uint32_t)DMAx + STREAM_OFFSET_TAB[Stream])))-
1074:Drivers/STM32F7xx_HAL_Driver/Inc/stm32f7xx_ll_dma.h **** }
1075:Drivers/STM32F7xx_HAL_Driver/Inc/stm32f7xx_ll_dma.h **** 
1076:Drivers/STM32F7xx_HAL_Driver/Inc/stm32f7xx_ll_dma.h **** /**
1077:Drivers/STM32F7xx_HAL_Driver/Inc/stm32f7xx_ll_dma.h ****   * @brief Set Memory burst transfer configuration.
1078:Drivers/STM32F7xx_HAL_Driver/Inc/stm32f7xx_ll_dma.h ****   * @rmtoll CR          MBURST           LL_DMA_SetMemoryBurstxfer
1079:Drivers/STM32F7xx_HAL_Driver/Inc/stm32f7xx_ll_dma.h ****   * @param  DMAx DMAx Instance
1080:Drivers/STM32F7xx_HAL_Driver/Inc/stm32f7xx_ll_dma.h ****   * @param  Stream This parameter can be one of the following values:
1081:Drivers/STM32F7xx_HAL_Driver/Inc/stm32f7xx_ll_dma.h ****   *         @arg @ref LL_DMA_STREAM_0
ARM GAS  C:\Users\Giorgio\AppData\Local\Temp\ccg7jKJX.s 			page 47


1082:Drivers/STM32F7xx_HAL_Driver/Inc/stm32f7xx_ll_dma.h ****   *         @arg @ref LL_DMA_STREAM_1
1083:Drivers/STM32F7xx_HAL_Driver/Inc/stm32f7xx_ll_dma.h ****   *         @arg @ref LL_DMA_STREAM_2
1084:Drivers/STM32F7xx_HAL_Driver/Inc/stm32f7xx_ll_dma.h ****   *         @arg @ref LL_DMA_STREAM_3
1085:Drivers/STM32F7xx_HAL_Driver/Inc/stm32f7xx_ll_dma.h ****   *         @arg @ref LL_DMA_STREAM_4
1086:Drivers/STM32F7xx_HAL_Driver/Inc/stm32f7xx_ll_dma.h ****   *         @arg @ref LL_DMA_STREAM_5
1087:Drivers/STM32F7xx_HAL_Driver/Inc/stm32f7xx_ll_dma.h ****   *         @arg @ref LL_DMA_STREAM_6
1088:Drivers/STM32F7xx_HAL_Driver/Inc/stm32f7xx_ll_dma.h ****   *         @arg @ref LL_DMA_STREAM_7
1089:Drivers/STM32F7xx_HAL_Driver/Inc/stm32f7xx_ll_dma.h ****   * @param  Mburst This parameter can be one of the following values:
1090:Drivers/STM32F7xx_HAL_Driver/Inc/stm32f7xx_ll_dma.h ****   *         @arg @ref LL_DMA_MBURST_SINGLE
1091:Drivers/STM32F7xx_HAL_Driver/Inc/stm32f7xx_ll_dma.h ****   *         @arg @ref LL_DMA_MBURST_INC4
1092:Drivers/STM32F7xx_HAL_Driver/Inc/stm32f7xx_ll_dma.h ****   *         @arg @ref LL_DMA_MBURST_INC8
1093:Drivers/STM32F7xx_HAL_Driver/Inc/stm32f7xx_ll_dma.h ****   *         @arg @ref LL_DMA_MBURST_INC16
1094:Drivers/STM32F7xx_HAL_Driver/Inc/stm32f7xx_ll_dma.h ****   * @retval None
1095:Drivers/STM32F7xx_HAL_Driver/Inc/stm32f7xx_ll_dma.h ****   */
1096:Drivers/STM32F7xx_HAL_Driver/Inc/stm32f7xx_ll_dma.h **** __STATIC_INLINE void LL_DMA_SetMemoryBurstxfer(DMA_TypeDef *DMAx, uint32_t Stream, uint32_t Mburst)
1097:Drivers/STM32F7xx_HAL_Driver/Inc/stm32f7xx_ll_dma.h **** {
1098:Drivers/STM32F7xx_HAL_Driver/Inc/stm32f7xx_ll_dma.h ****   MODIFY_REG(((DMA_Stream_TypeDef*)((uint32_t)((uint32_t)DMAx + STREAM_OFFSET_TAB[Stream])))->CR, D
1099:Drivers/STM32F7xx_HAL_Driver/Inc/stm32f7xx_ll_dma.h **** }
1100:Drivers/STM32F7xx_HAL_Driver/Inc/stm32f7xx_ll_dma.h **** 
1101:Drivers/STM32F7xx_HAL_Driver/Inc/stm32f7xx_ll_dma.h **** /**
1102:Drivers/STM32F7xx_HAL_Driver/Inc/stm32f7xx_ll_dma.h ****   * @brief Get Memory burst transfer configuration.
1103:Drivers/STM32F7xx_HAL_Driver/Inc/stm32f7xx_ll_dma.h ****   * @rmtoll CR          MBURST           LL_DMA_GetMemoryBurstxfer
1104:Drivers/STM32F7xx_HAL_Driver/Inc/stm32f7xx_ll_dma.h ****   * @param  DMAx DMAx Instance
1105:Drivers/STM32F7xx_HAL_Driver/Inc/stm32f7xx_ll_dma.h ****   * @param  Stream This parameter can be one of the following values:
1106:Drivers/STM32F7xx_HAL_Driver/Inc/stm32f7xx_ll_dma.h ****   *         @arg @ref LL_DMA_STREAM_0
1107:Drivers/STM32F7xx_HAL_Driver/Inc/stm32f7xx_ll_dma.h ****   *         @arg @ref LL_DMA_STREAM_1
1108:Drivers/STM32F7xx_HAL_Driver/Inc/stm32f7xx_ll_dma.h ****   *         @arg @ref LL_DMA_STREAM_2
1109:Drivers/STM32F7xx_HAL_Driver/Inc/stm32f7xx_ll_dma.h ****   *         @arg @ref LL_DMA_STREAM_3
1110:Drivers/STM32F7xx_HAL_Driver/Inc/stm32f7xx_ll_dma.h ****   *         @arg @ref LL_DMA_STREAM_4
1111:Drivers/STM32F7xx_HAL_Driver/Inc/stm32f7xx_ll_dma.h ****   *         @arg @ref LL_DMA_STREAM_5
1112:Drivers/STM32F7xx_HAL_Driver/Inc/stm32f7xx_ll_dma.h ****   *         @arg @ref LL_DMA_STREAM_6
1113:Drivers/STM32F7xx_HAL_Driver/Inc/stm32f7xx_ll_dma.h ****   *         @arg @ref LL_DMA_STREAM_7
1114:Drivers/STM32F7xx_HAL_Driver/Inc/stm32f7xx_ll_dma.h ****   * @retval Returned value can be one of the following values:
1115:Drivers/STM32F7xx_HAL_Driver/Inc/stm32f7xx_ll_dma.h ****   *         @arg @ref LL_DMA_MBURST_SINGLE
1116:Drivers/STM32F7xx_HAL_Driver/Inc/stm32f7xx_ll_dma.h ****   *         @arg @ref LL_DMA_MBURST_INC4
1117:Drivers/STM32F7xx_HAL_Driver/Inc/stm32f7xx_ll_dma.h ****   *         @arg @ref LL_DMA_MBURST_INC8
1118:Drivers/STM32F7xx_HAL_Driver/Inc/stm32f7xx_ll_dma.h ****   *         @arg @ref LL_DMA_MBURST_INC16
1119:Drivers/STM32F7xx_HAL_Driver/Inc/stm32f7xx_ll_dma.h ****   */
1120:Drivers/STM32F7xx_HAL_Driver/Inc/stm32f7xx_ll_dma.h **** __STATIC_INLINE uint32_t LL_DMA_GetMemoryBurstxfer(DMA_TypeDef *DMAx, uint32_t Stream)
1121:Drivers/STM32F7xx_HAL_Driver/Inc/stm32f7xx_ll_dma.h **** {
1122:Drivers/STM32F7xx_HAL_Driver/Inc/stm32f7xx_ll_dma.h ****   return (READ_BIT(((DMA_Stream_TypeDef*)((uint32_t)((uint32_t)DMAx + STREAM_OFFSET_TAB[Stream])))-
1123:Drivers/STM32F7xx_HAL_Driver/Inc/stm32f7xx_ll_dma.h **** }
1124:Drivers/STM32F7xx_HAL_Driver/Inc/stm32f7xx_ll_dma.h **** 
1125:Drivers/STM32F7xx_HAL_Driver/Inc/stm32f7xx_ll_dma.h **** /**
1126:Drivers/STM32F7xx_HAL_Driver/Inc/stm32f7xx_ll_dma.h ****   * @brief Set  Peripheral burst transfer configuration.
1127:Drivers/STM32F7xx_HAL_Driver/Inc/stm32f7xx_ll_dma.h ****   * @rmtoll CR          PBURST           LL_DMA_SetPeriphBurstxfer
1128:Drivers/STM32F7xx_HAL_Driver/Inc/stm32f7xx_ll_dma.h ****   * @param  DMAx DMAx Instance
1129:Drivers/STM32F7xx_HAL_Driver/Inc/stm32f7xx_ll_dma.h ****   * @param  Stream This parameter can be one of the following values:
1130:Drivers/STM32F7xx_HAL_Driver/Inc/stm32f7xx_ll_dma.h ****   *         @arg @ref LL_DMA_STREAM_0
1131:Drivers/STM32F7xx_HAL_Driver/Inc/stm32f7xx_ll_dma.h ****   *         @arg @ref LL_DMA_STREAM_1
1132:Drivers/STM32F7xx_HAL_Driver/Inc/stm32f7xx_ll_dma.h ****   *         @arg @ref LL_DMA_STREAM_2
1133:Drivers/STM32F7xx_HAL_Driver/Inc/stm32f7xx_ll_dma.h ****   *         @arg @ref LL_DMA_STREAM_3
1134:Drivers/STM32F7xx_HAL_Driver/Inc/stm32f7xx_ll_dma.h ****   *         @arg @ref LL_DMA_STREAM_4
1135:Drivers/STM32F7xx_HAL_Driver/Inc/stm32f7xx_ll_dma.h ****   *         @arg @ref LL_DMA_STREAM_5
1136:Drivers/STM32F7xx_HAL_Driver/Inc/stm32f7xx_ll_dma.h ****   *         @arg @ref LL_DMA_STREAM_6
1137:Drivers/STM32F7xx_HAL_Driver/Inc/stm32f7xx_ll_dma.h ****   *         @arg @ref LL_DMA_STREAM_7
1138:Drivers/STM32F7xx_HAL_Driver/Inc/stm32f7xx_ll_dma.h ****   * @param  Pburst This parameter can be one of the following values:
ARM GAS  C:\Users\Giorgio\AppData\Local\Temp\ccg7jKJX.s 			page 48


1139:Drivers/STM32F7xx_HAL_Driver/Inc/stm32f7xx_ll_dma.h ****   *         @arg @ref LL_DMA_PBURST_SINGLE
1140:Drivers/STM32F7xx_HAL_Driver/Inc/stm32f7xx_ll_dma.h ****   *         @arg @ref LL_DMA_PBURST_INC4
1141:Drivers/STM32F7xx_HAL_Driver/Inc/stm32f7xx_ll_dma.h ****   *         @arg @ref LL_DMA_PBURST_INC8
1142:Drivers/STM32F7xx_HAL_Driver/Inc/stm32f7xx_ll_dma.h ****   *         @arg @ref LL_DMA_PBURST_INC16
1143:Drivers/STM32F7xx_HAL_Driver/Inc/stm32f7xx_ll_dma.h ****   * @retval None
1144:Drivers/STM32F7xx_HAL_Driver/Inc/stm32f7xx_ll_dma.h ****   */
1145:Drivers/STM32F7xx_HAL_Driver/Inc/stm32f7xx_ll_dma.h **** __STATIC_INLINE void LL_DMA_SetPeriphBurstxfer(DMA_TypeDef *DMAx, uint32_t Stream, uint32_t Pburst)
1146:Drivers/STM32F7xx_HAL_Driver/Inc/stm32f7xx_ll_dma.h **** {
1147:Drivers/STM32F7xx_HAL_Driver/Inc/stm32f7xx_ll_dma.h ****   MODIFY_REG(((DMA_Stream_TypeDef*)((uint32_t)((uint32_t)DMAx + STREAM_OFFSET_TAB[Stream])))->CR, D
1148:Drivers/STM32F7xx_HAL_Driver/Inc/stm32f7xx_ll_dma.h **** }
1149:Drivers/STM32F7xx_HAL_Driver/Inc/stm32f7xx_ll_dma.h **** 
1150:Drivers/STM32F7xx_HAL_Driver/Inc/stm32f7xx_ll_dma.h **** /**
1151:Drivers/STM32F7xx_HAL_Driver/Inc/stm32f7xx_ll_dma.h ****   * @brief Get Peripheral burst transfer configuration.
1152:Drivers/STM32F7xx_HAL_Driver/Inc/stm32f7xx_ll_dma.h ****   * @rmtoll CR          PBURST           LL_DMA_GetPeriphBurstxfer
1153:Drivers/STM32F7xx_HAL_Driver/Inc/stm32f7xx_ll_dma.h ****   * @param  DMAx DMAx Instance
1154:Drivers/STM32F7xx_HAL_Driver/Inc/stm32f7xx_ll_dma.h ****   * @param  Stream This parameter can be one of the following values:
1155:Drivers/STM32F7xx_HAL_Driver/Inc/stm32f7xx_ll_dma.h ****   *         @arg @ref LL_DMA_STREAM_0
1156:Drivers/STM32F7xx_HAL_Driver/Inc/stm32f7xx_ll_dma.h ****   *         @arg @ref LL_DMA_STREAM_1
1157:Drivers/STM32F7xx_HAL_Driver/Inc/stm32f7xx_ll_dma.h ****   *         @arg @ref LL_DMA_STREAM_2
1158:Drivers/STM32F7xx_HAL_Driver/Inc/stm32f7xx_ll_dma.h ****   *         @arg @ref LL_DMA_STREAM_3
1159:Drivers/STM32F7xx_HAL_Driver/Inc/stm32f7xx_ll_dma.h ****   *         @arg @ref LL_DMA_STREAM_4
1160:Drivers/STM32F7xx_HAL_Driver/Inc/stm32f7xx_ll_dma.h ****   *         @arg @ref LL_DMA_STREAM_5
1161:Drivers/STM32F7xx_HAL_Driver/Inc/stm32f7xx_ll_dma.h ****   *         @arg @ref LL_DMA_STREAM_6
1162:Drivers/STM32F7xx_HAL_Driver/Inc/stm32f7xx_ll_dma.h ****   *         @arg @ref LL_DMA_STREAM_7
1163:Drivers/STM32F7xx_HAL_Driver/Inc/stm32f7xx_ll_dma.h ****   * @retval Returned value can be one of the following values:
1164:Drivers/STM32F7xx_HAL_Driver/Inc/stm32f7xx_ll_dma.h ****   *         @arg @ref LL_DMA_PBURST_SINGLE
1165:Drivers/STM32F7xx_HAL_Driver/Inc/stm32f7xx_ll_dma.h ****   *         @arg @ref LL_DMA_PBURST_INC4
1166:Drivers/STM32F7xx_HAL_Driver/Inc/stm32f7xx_ll_dma.h ****   *         @arg @ref LL_DMA_PBURST_INC8
1167:Drivers/STM32F7xx_HAL_Driver/Inc/stm32f7xx_ll_dma.h ****   *         @arg @ref LL_DMA_PBURST_INC16
1168:Drivers/STM32F7xx_HAL_Driver/Inc/stm32f7xx_ll_dma.h ****   */
1169:Drivers/STM32F7xx_HAL_Driver/Inc/stm32f7xx_ll_dma.h **** __STATIC_INLINE uint32_t LL_DMA_GetPeriphBurstxfer(DMA_TypeDef *DMAx, uint32_t Stream)
1170:Drivers/STM32F7xx_HAL_Driver/Inc/stm32f7xx_ll_dma.h **** {
1171:Drivers/STM32F7xx_HAL_Driver/Inc/stm32f7xx_ll_dma.h ****   return (READ_BIT(((DMA_Stream_TypeDef*)((uint32_t)((uint32_t)DMAx + STREAM_OFFSET_TAB[Stream])))-
1172:Drivers/STM32F7xx_HAL_Driver/Inc/stm32f7xx_ll_dma.h **** }
1173:Drivers/STM32F7xx_HAL_Driver/Inc/stm32f7xx_ll_dma.h **** 
1174:Drivers/STM32F7xx_HAL_Driver/Inc/stm32f7xx_ll_dma.h **** /**
1175:Drivers/STM32F7xx_HAL_Driver/Inc/stm32f7xx_ll_dma.h ****   * @brief Set Current target (only in double buffer mode) to Memory 1 or Memory 0.
1176:Drivers/STM32F7xx_HAL_Driver/Inc/stm32f7xx_ll_dma.h ****   * @rmtoll CR          CT           LL_DMA_SetCurrentTargetMem 
1177:Drivers/STM32F7xx_HAL_Driver/Inc/stm32f7xx_ll_dma.h ****   * @param  DMAx DMAx Instance
1178:Drivers/STM32F7xx_HAL_Driver/Inc/stm32f7xx_ll_dma.h ****   * @param  Stream This parameter can be one of the following values:
1179:Drivers/STM32F7xx_HAL_Driver/Inc/stm32f7xx_ll_dma.h ****   *         @arg @ref LL_DMA_STREAM_0
1180:Drivers/STM32F7xx_HAL_Driver/Inc/stm32f7xx_ll_dma.h ****   *         @arg @ref LL_DMA_STREAM_1
